(dp0
S'b'
p1
(lp2
(iTFClasses
TF
p3
(dp4
S'SingleBinFunc'
p5
(iTFClasses
function
p6
(dp7
S'DG_rel_weight'
p8
F0.7
sS'par_values'
p9
(lp10
F713.2258531565076
aF30.239081629841568
aF6.345646631448654
aF1.6308066008718924e-09
aF19.428580397742202
asS'DG_mean'
p11
(lp12
S'[1]'
p13
aS'[3]'
p14
asS'par_errors'
p15
(lp16
F24.38149301031303
aF0.5507038144056402
aF0.27319390663810283
aF1.18185470136134
aF0.5998333716253903
asS'par_limits'
p17
(lp18
(I1
F0.0
F2000.0
tp19
a(I2
F0.0
F2000.0
tp20
a(I3
F0.0
F2000.0
tp21
a(I4
F0.0
F2000.0
tp22
asS'Is_DG'
p23
I01
sS'str'
p24
S'[0]*(0.7*exp(-0.5*((x-([1]))/([2]))**2)+(1-0.7)*exp(-0.5*((x-([3]))/([2]+[4]))**2))'
p25
sS'par_initials'
p26
(lp27
S'0'
p28
aS'1.1*mean'
p29
aS'1.0*rms'
p30
aS'0.7*mean'
p31
aS'0.5*rms'
p32
asS'fitrange'
p33
(F30.1
F500.0
tp34
sS'DG_rms'
p35
(lp36
S'[2]'
p37
aS'[2]+[4]'
p38
asbsS'i_eta'
p39
I0
sS'particle'
p40
g1
sS'AcrossBinFuncs'
p41
(lp42
(iTFClasses
function
p43
(dp44
g15
(lp45
sg9
(lp46
sg17
(lp47
sg24
S'1'
p48
sg26
(lp49
sba(iTFClasses
function
p50
(dp51
g15
(lp52
F0.10433432544418958
aF0.0008199900010222599
asg9
(lp53
F-2.514407847356909
aF0.9221202920085322
asg17
(lp54
sg24
S'[0]+[1]*x'
p55
sg26
(lp56
S'0'
p57
ag48
asba(iTFClasses
function
p58
(dp59
g15
(lp60
F0.7031418843417132
aF0.055992179314933874
aF0.0031421373378136114
asg9
(lp61
F3.774345186536279
aF0.7926795038274612
aF0.05299620041900307
asg17
(lp62
sg24
S'sqrt([0]*[0] + x*[1]*[1] + x*x*[2]*[2])'
p63
sg26
(lp64
g57
ag57
ag57
asba(iTFClasses
function
p65
(dp66
g15
(lp67
F0.22948723418211872
aF0.001762410343243701
asg9
(lp68
F4.191155264129486
aF0.7452592347052133
asg17
(lp69
sg24
g55
sg26
(lp70
g57
ag48
asba(iTFClasses
function
p71
(dp72
g15
(lp73
F0.18214352274475157
aF0.11323639014607902
aF0.0009042152529721525
asg9
(lp74
F7.684084006846993
aF3.476391475577302e-11
aF0.09472828363686163
asg17
(lp75
sg24
g63
sg26
(lp76
g57
ag57
ag57
asbasba(iTFClasses
TF
p77
(dp78
g5
(iTFClasses
function
p79
(dp80
g8
F0.7
sg9
(lp81
F379.810342193356
aF28.938727354328787
aF6.437904564065233
aF3.1179947512782746e-08
aF17.89800408743325
asg11
(lp82
g13
ag14
asg15
(lp83
F28.76116705266363
aF1.1009458980430473
aF0.48322457444827105
aF4.973456499829054
aF1.0150869017516708
asg17
(lp84
g19
ag20
ag21
ag22
asg23
I01
sg24
g25
sg26
(lp85
g28
ag29
ag30
ag31
ag32
asg33
g34
sg35
(lp86
g37
ag38
asbsg39
I1
sg40
g1
sg41
(lp87
(iTFClasses
function
p88
(dp89
g15
(lp90
sg9
(lp91
sg17
(lp92
sg24
g48
sg26
(lp93
sba(iTFClasses
function
p94
(dp95
g15
(lp96
F0.15808932031844958
aF0.0013224824152010999
asg9
(lp97
F-3.3207494664113186
aF0.8718932461174228
asg17
(lp98
sg24
g55
sg26
(lp99
g57
ag48
asba(iTFClasses
function
p100
(dp101
g15
(lp102
F0.8226105223291267
aF0.12318634839238536
aF0.004498653212348803
asg9
(lp103
F5.709021020929918
aF0.647851371893013
aF0.06819080149836067
asg17
(lp104
sg24
g63
sg26
(lp105
g57
ag57
ag57
asba(iTFClasses
function
p106
(dp107
g15
(lp108
F0.42694067050907863
aF0.0033296782347222707
asg9
(lp109
F3.843155846159996
aF0.6980876005479685
asg17
(lp110
sg24
g55
sg26
(lp111
g57
ag48
asba(iTFClasses
function
p112
(dp113
g15
(lp114
F0.29967799123026373
aF0.22253248593124997
aF0.0019432727206894688
asg9
(lp115
F7.817738866093008
aF1.5640809005361352e-06
aF0.07446389470148472
asg17
(lp116
sg24
g63
sg26
(lp117
g57
ag57
ag57
asbasbasS'l'
p118
(lp119
(iTFClasses
TF
p120
(dp121
g5
(iTFClasses
function
p122
(dp123
g8
F0.7
sg9
(lp124
F783.199445860141
aF26.9326026032628
aF6.7383546706425435
aF8.388589822772019e-08
aF16.258115464871103
asg11
(lp125
g13
ag14
asg15
(lp126
F66.21213605412864
aF1.079409942559007
aF0.41318079623153814
aF3.957812178718989
aF0.8820205077407763
asg17
(lp127
g19
ag20
ag21
ag22
asg23
I01
sg24
g25
sg26
(lp128
g28
ag29
ag30
ag31
ag32
asg33
g34
sg35
(lp129
g37
ag38
asbsg39
I0
sg40
g118
sg41
(lp130
(iTFClasses
function
p131
(dp132
g15
(lp133
sg9
(lp134
sg17
(lp135
sg24
g48
sg26
(lp136
sba(iTFClasses
function
p137
(dp138
g15
(lp139
F0.06700418620714564
aF0.0006577025713373405
asg9
(lp140
F-0.9382439846382887
aF0.946174078633882
asg17
(lp141
sg24
g55
sg26
(lp142
g57
ag48
asba(iTFClasses
function
p143
(dp144
g15
(lp145
F1.3062819014621643
aF0.009302860002481388
aF0.0014158574672956214
asg9
(lp146
F2.8678547476484854e-06
aF0.850668517940551
aF0.044046930619144255
asg17
(lp147
sg24
g63
sg26
(lp148
g57
ag57
ag57
asba(iTFClasses
function
p149
(dp150
g15
(lp151
F0.19001387681654358
aF0.0016469760847281872
asg9
(lp152
F2.833253850495278
aF0.8442243032299239
asg17
(lp153
sg24
g55
sg26
(lp154
g57
ag48
asba(iTFClasses
function
p155
(dp156
g15
(lp157
F0.6286923393531556
aF0.14357785026324146
aF0.005110627566211527
asg9
(lp158
F7.651819793779514
aF0.5838832085496353
aF0.06538633159897816
asg17
(lp159
sg24
g63
sg26
(lp160
g57
ag57
ag57
asbasba(iTFClasses
TF
p161
(dp162
g5
(iTFClasses
function
p163
(dp164
g8
F0.7
sg9
(lp165
F456.50307732902553
aF26.321878316049595
aF6.690778036772316
aF7.889355835288825e-08
aF14.155241290491837
asg11
(lp166
g13
ag14
asg15
(lp167
F63.10334586485345
aF1.589968544910226
aF0.5712188570136112
aF6.171855127377668
aF1.1878380945627978
asg17
(lp168
g19
ag20
ag21
ag22
asg23
I01
sg24
g25
sg26
(lp169
g28
ag29
ag30
ag31
ag32
asg33
g34
sg35
(lp170
g37
ag38
asbsg39
I1
sg40
g118
sg41
(lp171
(iTFClasses
function
p172
(dp173
g15
(lp174
sg9
(lp175
sg17
(lp176
sg24
g48
sg26
(lp177
sba(iTFClasses
function
p178
(dp179
g15
(lp180
F0.148113661029299
aF0.001413636289981179
asg9
(lp181
F-1.2273194461749046
aF0.9012149881584792
asg17
(lp182
sg24
g55
sg26
(lp183
g57
ag48
asba(iTFClasses
function
p184
(dp185
g15
(lp186
F0.7786688762689656
aF0.01463279679958583
aF0.0018295938382085907
asg9
(lp187
F-1.5839177445505293e-06
aF0.8741205372690793
aF0.0580445041820255
asg17
(lp188
sg24
g63
sg26
(lp189
g57
ag57
ag57
asba(iTFClasses
function
p190
(dp191
g15
(lp192
F0.33461251725178287
aF0.0029204016674314395
asg9
(lp193
F3.79321760483391
aF0.7820721407477241
asg17
(lp194
sg24
g55
sg26
(lp195
g57
ag48
asba(iTFClasses
function
p196
(dp197
g15
(lp198
F0.21353953717186056
aF0.45860824340151346
aF0.0018923406608285158
asg9
(lp199
F-8.116708799507228
aF8.76198005510217e-06
aF0.0704022581104937
asg17
(lp200
sg24
g63
sg26
(lp201
g57
ag57
ag57
asbasbas.