(dp0
S'b'
p1
(lp2
(iTFClasses
TF
p3
(dp4
S'SingleBinFunc'
p5
(iTFClasses
function
p6
(dp7
S'DG_rel_weight'
p8
F0.7
sS'par_values'
p9
(lp10
F14309.631529643866
aF5.4789039194425015e-05
aF4.849236540418134
aF35.48426914175984
aF8.661975776017794
asS'DG_mean'
p11
(lp12
S'[1]'
p13
aS'[3]'
p14
asS'par_errors'
p15
(lp16
F48.94706250448916
aF1679.5040151336846
aF7.349824379681959
aF0.12726107929034214
aF7.352194933899158
asS'par_limits'
p17
(lp18
(I1
F0.0
F2000.0
tp19
a(I2
F0.0
F2000.0
tp20
a(I3
F0.0
F2000.0
tp21
a(I4
F0.0
F2000.0
tp22
asS'Is_DG'
p23
I01
sS'str'
p24
S'[0]*(0.7*exp(-0.5*((x-([1]))/([2]))**2)+(1-0.7)*exp(-0.5*((x-([3]))/([2]+[4]))**2))'
p25
sS'par_initials'
p26
(lp27
S'0'
p28
aS'1.1*mean'
p29
aS'1.0*rms'
p30
aS'0.7*mean'
p31
aS'0.5*rms'
p32
asS'fitrange'
p33
(F30.1
F500.0
tp34
sS'DG_rms'
p35
(lp36
S'[2]'
p37
aS'[2]+[4]'
p38
asbsS'i_eta'
p39
I0
sS'particle'
p40
g1
sS'AcrossBinFuncs'
p41
(lp42
(iTFClasses
function
p43
(dp44
g15
(lp45
sg9
(lp46
sg17
(lp47
sg24
S'1'
p48
sg26
(lp49
sba(iTFClasses
function
p50
(dp51
g15
(lp52
F0.017132773544325595
aF0.00021667625783034427
asg9
(lp53
F6.557990928808396
aF0.9298232576599627
asg17
(lp54
sg24
S'[0]+[1]*x'
p55
sg26
(lp56
S'0'
p57
ag48
asba(iTFClasses
function
p58
(dp59
g15
(lp60
F0.010898747640822205
aF0.029852868370382583
aF0.00014561276593504872
asg9
(lp61
F5.805000021506202
aF-9.907729463007041e-07
aF0.07125088710156091
asg17
(lp62
sg24
S'sqrt([0]*[0] + x*[1]*[1] + x*x*[2]*[2])'
p63
sg26
(lp64
g57
ag57
ag57
asba(iTFClasses
function
p65
(dp66
g15
(lp67
F0.033526049063639755
aF0.0003909269084107003
asg9
(lp68
F22.22278231942206
aF0.8522936933099649
asg17
(lp69
sg24
g55
sg26
(lp70
g57
ag48
asba(iTFClasses
function
p71
(dp72
g15
(lp73
F0.21884992707125606
aF0.004113877163319342
aF0.0005406967513831983
asg9
(lp74
F-6.756141720438302e-07
aF0.9052316986951511
aF0.0720196851467652
asg17
(lp75
sg24
g63
sg26
(lp76
g57
ag57
ag57
asbasba(iTFClasses
TF
p77
(dp78
g5
(iTFClasses
function
p79
(dp80
g8
F0.7
sg9
(lp81
F4063.5772398978456
aF36.803104927559005
aF6.6990162752770255
aF50.42456280209817
aF2.778230728644693
asg11
(lp82
g13
ag14
asg15
(lp83
F44.04631527008359
aF0.049402680233011864
aF0.07312298643147308
aF0.1317630047809608
aF0.19405860591553692
asg17
(lp84
g19
ag20
ag21
ag22
asg23
I01
sg24
g25
sg26
(lp85
g28
ag29
ag30
ag31
ag32
asg33
g34
sg35
(lp86
g37
ag38
asbsg39
I1
sg40
g1
sg41
(lp87
(iTFClasses
function
p88
(dp89
g15
(lp90
sg9
(lp91
sg17
(lp92
sg24
g48
sg26
(lp93
sba(iTFClasses
function
p94
(dp95
g15
(lp96
F0.023277891588231448
aF0.00029745680564274287
asg9
(lp97
F7.584955357424767
aF0.9162784806998807
asg17
(lp98
sg24
g55
sg26
(lp99
g57
ag48
asba(iTFClasses
function
p100
(dp101
g15
(lp102
F0.01327550214798065
aF0.09696835740464656
aF0.0002038420630648637
asg9
(lp103
F6.922717989455887
aF-3.2957789676242246e-06
aF0.0765477268627272
asg17
(lp104
sg24
g63
sg26
(lp105
g57
ag57
ag57
asba(iTFClasses
function
p106
(dp107
g15
(lp108
F0.0339921601377209
aF0.0004032831516603404
asg9
(lp109
F24.58869825154783
aF0.8329292163598367
asg17
(lp110
sg24
g55
sg26
(lp111
g57
ag48
asba(iTFClasses
function
p112
(dp113
g15
(lp114
F0.24332206096761486
aF0.007326718172820051
aF0.0006312908534375265
asg9
(lp115
F-4.905905571030722e-07
aF0.7227382177416458
aF0.08970284515244974
asg17
(lp116
sg24
g63
sg26
(lp117
g57
ag57
ag57
asbasbasS'l'
p118
(lp119
(iTFClasses
TF
p120
(dp121
g5
(iTFClasses
function
p122
(dp123
g8
F0.7
sg9
(lp124
F8557.412086117594
aF29.63489472684877
aF7.76907899264434
aF32.667328869104395
aF6.818747214713872
asg11
(lp125
g13
ag14
asg15
(lp126
F65.37073908393022
aF0.23907431434927418
aF0.2078329711407978
aF0.9026989099995539
aF0.3556545438643255
asg17
(lp127
g19
ag20
ag21
ag22
asg23
I01
sg24
g25
sg26
(lp128
g28
ag29
ag30
ag31
ag32
asg33
g34
sg35
(lp129
g37
ag38
asbsg39
I0
sg40
g118
sg41
(lp130
(iTFClasses
function
p131
(dp132
g15
(lp133
sg9
(lp134
sg17
(lp135
sg24
g48
sg26
(lp136
sba(iTFClasses
function
p137
(dp138
g15
(lp139
F0.015695833374432717
aF0.0002125764608923549
asg9
(lp140
F2.819352423091059
aF0.9384251553015783
asg17
(lp141
sg24
g55
sg26
(lp142
g57
ag48
asba(iTFClasses
function
p143
(dp144
g15
(lp145
F0.010868936195028218
aF0.03516298466410004
aF0.00013746830915391535
asg9
(lp146
F4.880308586560401
aF2.840825772918119e-07
aF0.07345363286324277
asg17
(lp147
sg24
g63
sg26
(lp148
g57
ag57
ag57
asba(iTFClasses
function
p149
(dp150
g15
(lp151
F0.031066261696169748
aF0.00037288355076507934
asg9
(lp152
F13.593910281742941
aF0.8634909841239726
asg17
(lp153
sg24
g55
sg26
(lp154
g57
ag48
asba(iTFClasses
function
p155
(dp156
g15
(lp157
F0.20082385892157092
aF0.0033171663520364034
aF0.000751880034428576
asg9
(lp158
F-1.0436578255963734e-08
aF0.9501666340222348
aF0.04508795783497915
asg17
(lp159
sg24
g63
sg26
(lp160
g57
ag57
ag57
asbasba(iTFClasses
TF
p161
(dp162
g5
(iTFClasses
function
p163
(dp164
g8
F0.7
sg9
(lp165
F5696.293681913501
aF29.897731806266535
aF8.759194601295928
aF30.773479567225202
aF8.051135840209334
asg11
(lp166
g13
ag14
asg15
(lp167
F49.560630144704255
aF0.27079318337230873
aF0.30054190691059013
aF2.252608439102133
aF1.0292266278261746
asg17
(lp168
g19
ag20
ag21
ag22
asg23
I01
sg24
g25
sg26
(lp169
g28
ag29
ag30
ag31
ag32
asg33
g34
sg35
(lp170
g37
ag38
asbsg39
I1
sg40
g118
sg41
(lp171
(iTFClasses
function
p172
(dp173
g15
(lp174
sg9
(lp175
sg17
(lp176
sg24
g48
sg26
(lp177
sba(iTFClasses
function
p178
(dp179
g15
(lp180
F0.022696184853701257
aF0.0002981454414110031
asg9
(lp181
F2.559173421287794
aF0.9259796219789364
asg17
(lp182
sg24
g55
sg26
(lp183
g57
ag48
asba(iTFClasses
function
p184
(dp185
g15
(lp186
F0.06479961884043169
aF0.027023759232797838
aF0.0008120882278407717
asg9
(lp187
F5.624093784965679
aF0.36126847778110394
aF0.072198674794577
asg17
(lp188
sg24
g63
sg26
(lp189
g57
ag57
ag57
asba(iTFClasses
function
p190
(dp191
g15
(lp192
F0.047397116540921866
aF0.0005622871314886679
asg9
(lp193
F14.833569140635932
aF0.8418399921157954
asg17
(lp194
sg24
g55
sg26
(lp195
g57
ag48
asba(iTFClasses
function
p196
(dp197
g15
(lp198
F0.3327053156688928
aF0.005959626569802194
aF0.0006826060732447488
asg9
(lp199
F6.377105081227862e-06
aF0.7667769752461134
aF0.07309803932352463
asg17
(lp200
sg24
g63
sg26
(lp201
g57
ag57
ag57
asbasbas.