(dp0
S'b'
p1
(lp2
(iTFClasses
TF
p3
(dp4
S'SingleBinFunc'
p5
(iTFClasses
function
p6
(dp7
S'DG_rel_weight'
p8
F0.7
sS'par_values'
p9
(lp10
F3772.889510363433
aF28.092718058436272
aF4.803529030944942
aF8.814393659406505e-09
aF14.051127166376132
asS'abspars'
p11
(lp12
I1
aI2
aI3
aI4
asS'DG_mean'
p13
(lp14
S'[1]'
p15
aS'[3]'
p16
asS'par_errors'
p17
(lp18
F22.749180707802292
aF0.030199293463651244
aF0.031088029055548194
aF0.21685938755688916
aF0.10064283021143883
asS'Is_DG'
p19
I01
sS'str'
p20
S'[0]*(0.7*exp(-0.5*((x-([1]))/([2]))**2)+(1-0.7)*exp(-0.5*((x-([3]))/([2]+[4]))**2))'
p21
sS'par_initials'
p22
(lp23
S'0'
p24
aS'1.2*mean'
p25
aS'0.5*rms'
p26
aS'0.8*mean'
p27
aS'1.0*rms'
p28
asS'DG_rms'
p29
(lp30
S'[2]'
p31
aS'[2]+[4]'
p32
asbsS'i_eta'
p33
I0
sS'particle'
p34
g1
sS'AcrossBinFuncs'
p35
(lp36
(iTFClasses
function
p37
(dp38
g17
(lp39
sg9
(lp40
sg11
(lp41
sg20
S'1'
p42
sg22
(lp43
sba(iTFClasses
function
p44
(dp45
g17
(lp46
F0.032901779316095336
aF0.00044949164927118705
asg9
(lp47
F-1.6356545605953097
aF0.9166517734865526
asg11
(lp48
sg20
S'[0]+[1]*x'
p49
sg22
(lp50
S'0'
p51
ag42
asba(iTFClasses
function
p52
(dp53
g17
(lp54
F0.16924359361369168
aF0.003856929496657017
aF0.0005698718111772837
asg9
(lp55
F-7.447199317624578e-11
aF0.7910434425376252
aF0.06932157993677876
asg11
(lp56
sg20
S'sqrt([0]*[0] + x*[1]*[1] + x*x*[2]*[2])'
p57
sg22
(lp58
g51
ag51
ag51
asba(iTFClasses
function
p59
(dp60
g17
(lp61
F0.0627303184783956
aF0.0008549727712395379
asg9
(lp62
F2.66577512508262
aF0.75870713232725
asg11
(lp63
sg20
g49
sg22
(lp64
g51
ag42
asba(iTFClasses
function
p65
(dp66
g17
(lp67
F0.02301275596602089
aF0.0037239466384612952
aF0.00019768362969174182
asg9
(lp68
F2.2245727564998864e-12
aF1.388037031809701e-12
aF0.052795691663937654
asg11
(lp69
sg20
g57
sg22
(lp70
g51
ag51
ag51
asbasba(iTFClasses
TF
p71
(dp72
g5
(iTFClasses
function
p73
(dp74
g8
F0.7
sg9
(lp75
F3045.0564115097454
aF26.66519148423374
aF4.758079096735757
aF28.66773134030165
aF2.8700595534446594
asg11
(lp76
I1
aI2
aI3
aI4
asg13
(lp77
g15
ag16
asg17
(lp78
F24.285749621982735
aF0.1064170128908799
aF0.04412672387982264
aF0.3325319369345543
aF0.18651987677065218
asg19
I01
sg20
g21
sg22
(lp79
g24
ag25
ag26
ag27
ag28
asg29
(lp80
g31
ag32
asbsg33
I1
sg34
g1
sg35
(lp81
(iTFClasses
function
p82
(dp83
g17
(lp84
sg9
(lp85
sg11
(lp86
sg20
g42
sg22
(lp87
sba(iTFClasses
function
p88
(dp89
g17
(lp90
F0.0357600947286673
aF0.0005174607536685006
asg9
(lp91
F-2.01610912292697
aF0.8993115824710128
asg11
(lp92
sg20
g49
sg22
(lp93
g51
ag42
asba(iTFClasses
function
p94
(dp95
g17
(lp96
F0.13674377761596723
aF0.00436958453206516
aF0.0005646587190425948
asg9
(lp97
F4.728350182129064e-06
aF0.8397295404725742
aF0.08804017998996992
asg11
(lp98
sg20
g57
sg22
(lp99
g51
ag51
ag51
asba(iTFClasses
function
p100
(dp101
g17
(lp102
F0.08241164066002209
aF0.001128749335200304
asg9
(lp103
F1.6838805848957348
aF0.7477188155853021
asg11
(lp104
sg20
g49
sg22
(lp105
g51
ag42
asba(iTFClasses
function
p106
(dp107
g17
(lp108
F0.11256832288360134
aF0.020178012592105332
aF0.00044981557189594185
asg9
(lp109
F1.2653003489540098
aF-1.1546725515776784e-10
aF0.07554138638056494
asg11
(lp110
sg20
g57
sg22
(lp111
g51
ag51
ag51
asbasba(iTFClasses
TF
p112
(dp113
g5
(iTFClasses
function
p114
(dp115
g8
F0.7
sg9
(lp116
F1107.534508226315
aF26.972482890037842
aF5.685298694651508
aF16.067065387242565
aF7.942403535574738
asg11
(lp117
I1
aI2
aI3
aI4
asg13
(lp118
g15
ag16
asg17
(lp119
F52.59826704069964
aF0.09601558970001456
aF0.16639768780291053
aF5.376191030410704
aF1.9301911956001727
asg19
I01
sg20
g21
sg22
(lp120
g24
ag25
ag26
ag27
ag28
asg29
(lp121
g31
ag32
asbsg33
I2
sg34
g1
sg35
(lp122
(iTFClasses
function
p123
(dp124
g17
(lp125
sg9
(lp126
sg11
(lp127
sg20
g42
sg22
(lp128
sba(iTFClasses
function
p129
(dp130
g17
(lp131
F0.06025911739286824
aF0.0008806762774813658
asg9
(lp132
F-5.193478959363714
aF0.954074050240743
asg11
(lp133
sg20
g49
sg22
(lp134
g51
ag42
asba(iTFClasses
function
p135
(dp136
g17
(lp137
F0.11914216661712751
aF0.011437984638179237
aF0.0007661647530776393
asg9
(lp138
F-2.793112467581157e-07
aF0.4993241756623666
aF0.1189712668819806
asg11
(lp139
sg20
g57
sg22
(lp140
g51
ag51
ag51
asba(iTFClasses
function
p141
(dp142
g17
(lp143
F0.11631963518434155
aF0.001686072585901389
asg9
(lp144
F10.792430471017466
aF0.6477612892004937
asg11
(lp145
sg20
g49
sg22
(lp146
g51
ag42
asba(iTFClasses
function
p147
(dp148
g17
(lp149
F0.06332712429136043
aF0.010258259696517722
aF0.00019667723983336828
asg9
(lp150
F-3.893393701150744e-13
aF-2.0846918299700194e-15
aF0.0624418636733959
asg11
(lp151
sg20
g57
sg22
(lp152
g51
ag51
ag51
asbasbasS'l'
p153
(lp154
(iTFClasses
TF
p155
(dp156
g5
(iTFClasses
function
p157
(dp158
g9
(lp159
F3093.165468267426
aF28.10166165771653
aF5.631891649169379
asg11
(lp160
sg17
(lp161
F16.64437176775851
aF0.028435097264650048
aF0.028551392337540442
asS'Is_SG'
p162
I01
sS'SG_mean'
p163
g15
sg20
S'[0]*exp(-0.5*((x-([1]))/([2]))**2)'
p164
sg22
(lp165
g24
aS'mean'
p166
aS'rms'
p167
asS'SG_rms'
p168
g31
sbsg33
I0
sg34
g153
sg35
(lp169
(iTFClasses
function
p170
(dp171
g17
(lp172
sg9
(lp173
sg11
(lp174
sg20
g42
sg22
(lp175
sba(iTFClasses
function
p176
(dp177
g17
(lp178
F0.014342972614052475
aF0.00025122575851529115
asg9
(lp179
F0.7755945837426705
aF0.8844371805070863
asg11
(lp180
sg20
g49
sg22
(lp181
g51
ag42
asba(iTFClasses
function
p182
(dp183
g17
(lp184
F0.10409044630114024
aF0.0022940269112447305
aF0.0003068043547554601
asg9
(lp185
F-9.42549938406436e-07
aF0.8820448022327633
aF0.10676197935830788
asg11
(lp186
sg20
g57
sg22
(lp187
g51
ag51
ag51
asbasba(iTFClasses
TF
p188
(dp189
g5
(iTFClasses
function
p190
(dp191
g9
(lp192
F2861.586811817872
aF27.87678767137054
aF6.37162366643054
asg11
(lp193
sg17
(lp194
F14.712118983913633
aF0.036550096998709036
aF0.03335547591822582
asg162
I01
sg163
g15
sg20
g164
sg22
(lp195
g24
ag166
ag167
asg168
g31
sbsg33
I1
sg34
g153
sg35
(lp196
(iTFClasses
function
p197
(dp198
g17
(lp199
sg9
(lp200
sg11
(lp201
sg20
g42
sg22
(lp202
sba(iTFClasses
function
p203
(dp204
g17
(lp205
F0.015899480664894848
aF0.00026627416836773397
asg9
(lp206
F1.4081185803602272
aF0.865619096983179
asg11
(lp207
sg20
g49
sg22
(lp208
g51
ag42
asba(iTFClasses
function
p209
(dp210
g17
(lp211
F0.09922936414960823
aF0.0025228460734821115
aF0.0003274210669247791
asg9
(lp212
F5.20305201929792e-08
aF0.9486873296194873
aF0.12009302863945372
asg11
(lp213
sg20
g57
sg22
(lp214
g51
ag51
ag51
asbasba(iTFClasses
TF
p215
(dp216
g5
(iTFClasses
function
p217
(dp218
g9
(lp219
F963.8121409897618
aF28.188409149600403
aF6.685200926589039
asg11
(lp220
sg17
(lp221
F8.301154876081041
aF0.06221148727054032
aF0.057465156338657855
asg162
I01
sg163
g15
sg20
g164
sg22
(lp222
g24
ag166
ag167
asg168
g31
sbsg33
I2
sg34
g153
sg35
(lp223
(iTFClasses
function
p224
(dp225
g17
(lp226
sg9
(lp227
sg11
(lp228
sg20
g42
sg22
(lp229
sba(iTFClasses
function
p230
(dp231
g17
(lp232
F0.027441774601824478
aF0.000493663955912112
asg9
(lp233
F-0.16985445420471396
aF0.9151970139306903
asg11
(lp234
sg20
g49
sg22
(lp235
g51
ag42
asba(iTFClasses
function
p236
(dp237
g17
(lp238
F0.174308429301823
aF0.004274310074084826
aF0.0006508639780514995
asg9
(lp239
F-3.965708028005892e-11
aF1.029860983021113
aF0.11378365205928447
asg11
(lp240
sg20
g57
sg22
(lp241
g51
ag51
ag51
asbasbas.