(dp0
S'b'
p1
(lp2
(iTFClasses
TF
p3
(dp4
S'SingleBinFunc'
p5
(iTFClasses
function
p6
(dp7
S'DG_rel_weight'
p8
F0.7
sS'par_values'
p9
(lp10
F596.0857811511725
aF30.888378733398227
aF5.233823481875732
aF15.620772333665322
aF13.509398642796878
asS'DG_mean'
p11
(lp12
S'[1]'
p13
aS'[3]'
p14
asS'par_errors'
p15
(lp16
F27.412498330341162
aF0.4591047959923156
aF0.3826929473262908
aF5.8040250134317475
aF2.3924305368524514
asS'par_limits'
p17
(lp18
(I1
F0.0
F2000.0
tp19
a(I2
F0.0
F2000.0
tp20
a(I3
F0.0
F2000.0
tp21
a(I4
F0.0
F2000.0
tp22
asS'Is_DG'
p23
I01
sS'str'
p24
S'[0]*(0.7*exp(-0.5*((x-([1]))/([2]))**2)+(1-0.7)*exp(-0.5*((x-([3]))/([2]+[4]))**2))'
p25
sS'par_initials'
p26
(lp27
S'0'
p28
aS'1.1*mean'
p29
aS'1.0*rms'
p30
aS'0.7*mean'
p31
aS'0.5*rms'
p32
asS'fitrange'
p33
(F30.1
F500.0
tp34
sS'DG_rms'
p35
(lp36
S'[2]'
p37
aS'[2]+[4]'
p38
asbsS'i_eta'
p39
I0
sS'particle'
p40
g1
sS'AcrossBinFuncs'
p41
(lp42
(iTFClasses
function
p43
(dp44
g15
(lp45
sg9
(lp46
sg17
(lp47
sg24
S'1'
p48
sg26
(lp49
sba(iTFClasses
function
p50
(dp51
g15
(lp52
F0.11701560171700125
aF0.0011740863434180166
asg9
(lp53
F-4.8010120900613
aF1.009775073093848
asg17
(lp54
sg24
S'[0]+[1]*x'
p55
sg26
(lp56
S'0'
p57
ag48
asba(iTFClasses
function
p58
(dp59
g15
(lp60
F1.074408439734643
aF0.011221264298496831
aF0.0024811924607868485
asg9
(lp61
F2.394873155878494e-05
aF1.1164988951781463
aF0.04504708599174466
asg17
(lp62
sg24
S'sqrt([0]*[0] + x*[1]*[1] + x*x*[2]*[2])'
p63
sg26
(lp64
g57
ag57
ag57
asba(iTFClasses
function
p65
(dp66
g15
(lp67
F0.2664472124581666
aF0.002377490008631481
asg9
(lp68
F-10.54890106388549
aF0.9774117055218013
asg17
(lp69
sg24
g55
sg26
(lp70
g57
ag48
asba(iTFClasses
function
p71
(dp72
g15
(lp73
F0.33916443541313623
aF0.12497718045597592
aF0.0011451832524353998
asg9
(lp74
F4.769687108774816
aF-5.142545362265641e-11
aF0.13005479007620482
asg17
(lp75
sg24
g63
sg26
(lp76
g57
ag57
ag57
asbasba(iTFClasses
TF
p77
(dp78
g5
(iTFClasses
function
p79
(dp80
g8
F0.7
sg9
(lp81
F429.5940261256529
aF32.36220399878575
aF4.822841731788152
aF27.15720824224277
aF9.096766136658442
asg11
(lp82
g13
ag14
asg15
(lp83
F9.731180072085314
aF0.2849825713090439
aF0.29892175976525825
aF2.6191563137719633
aF1.1539467606660465
asg17
(lp84
g19
ag20
ag21
ag22
asg23
I01
sg24
g25
sg26
(lp85
g28
ag29
ag30
ag31
ag32
asg33
g34
sg35
(lp86
g37
ag38
asbsg39
I1
sg40
g1
sg41
(lp87
(iTFClasses
function
p88
(dp89
g15
(lp90
sg9
(lp91
sg17
(lp92
sg24
g48
sg26
(lp93
sba(iTFClasses
function
p94
(dp95
g15
(lp96
F0.17866092364202782
aF0.0018348380466217237
asg9
(lp97
F-4.890593961155059
aF1.001239803317056
asg17
(lp98
sg24
g55
sg26
(lp99
g57
ag48
asba(iTFClasses
function
p100
(dp101
g15
(lp102
F0.8574170648322387
aF0.01621667229274305
aF0.0032549662345484447
asg9
(lp103
F3.4143603797909173e-10
aF1.2439650994870546
aF0.05887327147437177
asg17
(lp104
sg24
g63
sg26
(lp105
g57
ag57
ag57
asba(iTFClasses
function
p106
(dp107
g15
(lp108
F0.4386664802864598
aF0.003865280446719205
asg9
(lp109
F-10.850701404744369
aF0.9624180284965564
asg17
(lp110
sg24
g55
sg26
(lp111
g57
ag48
asba(iTFClasses
function
p112
(dp113
g15
(lp114
F0.5433153174327243
aF0.19272652692575032
aF0.001887202122134306
asg9
(lp115
F-4.562431327688462
aF-2.1406939191778593e-06
aF0.11776348845346632
asg17
(lp116
sg24
g63
sg26
(lp117
g57
ag57
ag57
asbasbasS'l'
p118
(lp119
(iTFClasses
TF
p120
(dp121
g5
(iTFClasses
function
p122
(dp123
g8
F0.7
sg9
(lp124
F695.0958617345441
aF28.880139293340214
aF7.4844957345483465
aF4.886235621466284
aF15.477213380474364
asg11
(lp125
g13
ag14
asg15
(lp126
F153.28192731379983
aF1.8045689715256437
aF1.329531784699412
aF54.699606626883444
aF11.989051494292136
asg17
(lp127
g19
ag20
ag21
ag22
asg23
I01
sg24
g25
sg26
(lp128
g28
ag29
ag30
ag31
ag32
asg33
g34
sg35
(lp129
g37
ag38
asbsg39
I0
sg40
g118
sg41
(lp130
(iTFClasses
function
p131
(dp132
g15
(lp133
sg9
(lp134
sg17
(lp135
sg24
g48
sg26
(lp136
sba(iTFClasses
function
p137
(dp138
g15
(lp139
F0.12812006046507687
aF0.001473285114902545
asg9
(lp140
F-2.0285024599561168
aF1.0312899588185616
asg17
(lp141
sg24
g55
sg26
(lp142
g57
ag48
asba(iTFClasses
function
p143
(dp144
g15
(lp145
F0.9682678168693559
aF0.06341795304656404
aF0.004772624116495493
asg9
(lp146
F-2.497615495213626
aF0.8857044784180425
aF0.06005720087190132
asg17
(lp147
sg24
g63
sg26
(lp148
g57
ag57
ag57
asba(iTFClasses
function
p149
(dp150
g15
(lp151
F0.2680776513643268
aF0.002770549045608772
asg9
(lp152
F-7.24287916217578
aF1.0518499696030401
asg17
(lp153
sg24
g55
sg26
(lp154
g57
ag48
asba(iTFClasses
function
p155
(dp156
g15
(lp157
F1.3025593042723902
aF0.15020855045772877
aF0.008963041884956708
asg9
(lp158
F4.806917678797584
aF0.8592939739367313
aF0.06787265309518743
asg17
(lp159
sg24
g63
sg26
(lp160
g57
ag57
ag57
asbasba(iTFClasses
TF
p161
(dp162
g5
(iTFClasses
function
p163
(dp164
g8
F0.7
sg9
(lp165
F435.7427499249368
aF31.555558814590935
aF6.4448135816669305
aF22.563185454178015
aF9.99688884422467
asg11
(lp166
g13
ag14
asg15
(lp167
F22.74841737904541
aF0.5629693758546477
aF0.5557093210051267
aF6.6143011217377765
aF2.53989072903893
asg17
(lp168
g19
ag20
ag21
ag22
asg23
I01
sg24
g25
sg26
(lp169
g28
ag29
ag30
ag31
ag32
asg33
g34
sg35
(lp170
g37
ag38
asbsg39
I1
sg40
g118
sg41
(lp171
(iTFClasses
function
p172
(dp173
g15
(lp174
sg9
(lp175
sg17
(lp176
sg24
g48
sg26
(lp177
sba(iTFClasses
function
p178
(dp179
g15
(lp180
F0.19602281667939314
aF0.0022443377966388607
asg9
(lp181
F-1.7778570024620965
aF1.038298336674751
asg17
(lp182
sg24
g55
sg26
(lp183
g57
ag48
asba(iTFClasses
function
p184
(dp185
g15
(lp186
F2.479526882190533
aF0.07150200120155943
aF0.008808879194590754
asg9
(lp187
F1.3685134809907595
aF1.150141920268913
aF0.04953458333326698
asg17
(lp188
sg24
g63
sg26
(lp189
g57
ag57
ag57
asba(iTFClasses
function
p190
(dp191
g15
(lp192
F0.42156904921494714
aF0.004316017934248235
asg9
(lp193
F-7.790909602501072
aF1.0485146130101113
asg17
(lp194
sg24
g55
sg26
(lp195
g57
ag48
asba(iTFClasses
function
p196
(dp197
g15
(lp198
F1.5327637229408673
aF0.4425245105521926
aF0.01123054866880554
asg9
(lp199
F6.288493590495663
aF0.448020426618736
aF0.08370912811063277
asg17
(lp200
sg24
g63
sg26
(lp201
g57
ag57
ag57
asbasbas.