(dp0
S'b'
p1
(lp2
(iTFClasses
TF
p3
(dp4
S'SingleBinFunc'
p5
(iTFClasses
function
p6
(dp7
S'DG_rel_weight'
p8
F0.7
sS'par_values'
p9
(lp10
F217.99927358948634
aF43.60424263656637
aF6.962222603379309
aF56.6985389615744
aF2.1502285476888705
asS'DG_mean'
p11
(lp12
S'[1]'
p13
aS'[3]'
p14
asS'par_errors'
p15
(lp16
F9.163879516860646
aF0.20551614787423134
aF0.20132882822976317
aF0.6026171807607668
aF0.7765051841042703
asS'par_limits'
p17
(lp18
(I1
F0.0
F2000.0
tp19
a(I2
F0.0
F2000.0
tp20
a(I3
F0.0
F2000.0
tp21
a(I4
F0.0
F2000.0
tp22
asS'Is_DG'
p23
I01
sS'str'
p24
S'[0]*(0.7*exp(-0.5*((x-([1]))/([2]))**2)+(1-0.7)*exp(-0.5*((x-([3]))/([2]+[4]))**2))'
p25
sS'par_initials'
p26
(lp27
S'0'
p28
aS'1.1*mean'
p29
aS'1.0*rms'
p30
aS'0.7*mean'
p31
aS'0.5*rms'
p32
asS'fitrange'
p33
(F30.1
F500.0
tp34
sS'DG_rms'
p35
(lp36
S'[2]'
p37
aS'[2]+[4]'
p38
asbsS'i_eta'
p39
I0
sS'particle'
p40
g1
sS'AcrossBinFuncs'
p41
(lp42
(iTFClasses
function
p43
(dp44
g15
(lp45
sg9
(lp46
sg17
(lp47
sg24
S'1'
p48
sg26
(lp49
sba(iTFClasses
function
p50
(dp51
g15
(lp52
F0.056232520592284306
aF0.0007219430868166162
asg9
(lp53
F13.257426583019509
aF0.9980097761727096
asg17
(lp54
sg24
S'[0]+[1]*x'
p55
sg26
(lp56
S'0'
p57
ag48
asba(iTFClasses
function
p58
(dp59
g15
(lp60
F0.05105256332624678
aF0.057488691579047256
aF0.000586009326789739
asg9
(lp61
F7.358899616033003
aF-5.234916471068922e-07
aF0.06143136271340449
asg17
(lp62
sg24
S'sqrt([0]*[0] + x*[1]*[1] + x*x*[2]*[2])'
p63
sg26
(lp64
g57
ag57
ag57
asba(iTFClasses
function
p65
(dp66
g15
(lp67
F0.1939807364811193
aF0.0017194352896817112
asg9
(lp68
F18.537345460357628
aF1.0570136198651792
asg17
(lp69
sg24
g55
sg26
(lp70
g57
ag48
asba(iTFClasses
function
p71
(dp72
g15
(lp73
F0.7534627136357662
aF0.018660462988043504
aF0.003536843841267436
asg9
(lp74
F-4.103755827521675e-05
aF0.9697573357165542
aF-0.03991192136369987
asg17
(lp75
sg24
g63
sg26
(lp76
g57
ag57
ag57
asbasba(iTFClasses
TF
p77
(dp78
g5
(iTFClasses
function
p79
(dp80
g8
F0.7
sg9
(lp81
F131.69815523666082
aF46.75841152132065
aF7.1533380154860104
aF87.59753490665601
aF11.834397029516719
asg11
(lp82
g13
ag14
asg15
(lp83
F3.8385283736641624
aF0.2526758214734812
aF0.17942127963505028
aF3.613659882453547
aF2.7577936489273647
asg17
(lp84
g19
ag20
ag21
ag22
asg23
I01
sg24
g25
sg26
(lp85
g28
ag29
ag30
ag31
ag32
asg33
g34
sg35
(lp86
g37
ag38
asbsg39
I1
sg40
g1
sg41
(lp87
(iTFClasses
function
p88
(dp89
g15
(lp90
sg9
(lp91
sg17
(lp92
sg24
g48
sg26
(lp93
sba(iTFClasses
function
p94
(dp95
g15
(lp96
F0.11354933511649463
aF0.001098623169726233
asg9
(lp97
F8.882014764950004
aF1.0651134021720194
asg17
(lp98
sg24
g55
sg26
(lp99
g57
ag48
asba(iTFClasses
function
p100
(dp101
g15
(lp102
F0.4047610304530502
aF0.09087382859199622
aF0.003990388632882611
asg9
(lp103
F5.633478316054235
aF0.5811826421620074
aF0.0659874655977046
asg17
(lp104
sg24
g63
sg26
(lp105
g57
ag57
ag57
asba(iTFClasses
function
p106
(dp107
g15
(lp108
F0.30954832902362955
aF0.002893708000440295
asg9
(lp109
F19.771954051594033
aF1.091185375389521
asg17
(lp110
sg24
g55
sg26
(lp111
g57
ag48
asba(iTFClasses
function
p112
(dp113
g15
(lp114
F0.8634471082938276
aF0.04583531515730641
aF0.0037356972434557487
asg9
(lp115
F-8.301044130284114e-06
aF0.667704138028799
aF0.06975364896269007
asg17
(lp116
sg24
g63
sg26
(lp117
g57
ag57
ag57
asbasbasS'l'
p118
(lp119
(iTFClasses
TF
p120
(dp121
g5
(iTFClasses
function
p122
(dp123
g8
F0.7
sg9
(lp124
F436.22950965959757
aF35.978026669252536
aF6.104246068045827
aF45.68118423119682
aF3.7799022595879084
asg11
(lp125
g13
ag14
asg15
(lp126
F12.96134465591126
aF0.19163045827136216
aF0.24281237980622317
aF0.5398245254904488
aF0.43724064501832194
asg17
(lp127
g19
ag20
ag21
ag22
asg23
I01
sg24
g25
sg26
(lp128
g28
ag29
ag30
ag31
ag32
asg33
g34
sg35
(lp129
g37
ag38
asbsg39
I0
sg40
g118
sg41
(lp130
(iTFClasses
function
p131
(dp132
g15
(lp133
sg9
(lp134
sg17
(lp135
sg24
g48
sg26
(lp136
sba(iTFClasses
function
p137
(dp138
g15
(lp139
F0.06607463518406245
aF0.0007248586194666415
asg9
(lp140
F3.0974334211004413
aF1.0436530443584882
asg17
(lp141
sg24
g55
sg26
(lp142
g57
ag48
asba(iTFClasses
function
p143
(dp144
g15
(lp145
F0.1250334775401105
aF0.020530667684270955
aF0.0009797337965081732
asg9
(lp146
F4.233424284185499
aF0.530455525948222
aF0.06292316131520756
asg17
(lp147
sg24
g63
sg26
(lp148
g57
ag57
ag57
asba(iTFClasses
function
p149
(dp150
g15
(lp151
F0.10851781770809922
aF0.0009510926434691528
asg9
(lp152
F13.656659251709701
aF1.0066009442337758
asg17
(lp153
sg24
g55
sg26
(lp154
g57
ag48
asba(iTFClasses
function
p155
(dp156
g15
(lp157
F0.4030463299874886
aF0.012859016985282763
aF0.0024537854204334636
asg9
(lp158
F-2.113504112273938e-06
aF0.9418485730540976
aF0.04420770952560442
asg17
(lp159
sg24
g63
sg26
(lp160
g57
ag57
ag57
asbasba(iTFClasses
TF
p161
(dp162
g5
(iTFClasses
function
p163
(dp164
g8
F0.7
sg9
(lp165
F213.34753457239634
aF37.609584989725
aF6.006209102359161
aF47.53722620035072
aF3.6204055043830285
asg11
(lp166
g13
ag14
asg15
(lp167
F9.28811267579944
aF0.2579238554399339
aF0.27210148626610753
aF0.7504128545711133
aF0.7381387439825415
asg17
(lp168
g19
ag20
ag21
ag22
asg23
I01
sg24
g25
sg26
(lp169
g28
ag29
ag30
ag31
ag32
asg33
g34
sg35
(lp170
g37
ag38
asbsg39
I1
sg40
g118
sg41
(lp171
(iTFClasses
function
p172
(dp173
g15
(lp174
sg9
(lp175
sg17
(lp176
sg24
g48
sg26
(lp177
sba(iTFClasses
function
p178
(dp179
g15
(lp180
F0.09659968755687283
aF0.001151723956164843
asg9
(lp181
F4.444588008099664
aF1.0592665628804947
asg17
(lp182
sg24
g55
sg26
(lp183
g57
ag48
asba(iTFClasses
function
p184
(dp185
g15
(lp186
F0.3169683654921012
aF0.0564986034592876
aF0.0035243513929127876
asg9
(lp187
F4.827058061417764
aF0.6829472795422885
aF0.05835803352461996
asg17
(lp188
sg24
g63
sg26
(lp189
g57
ag57
ag57
asba(iTFClasses
function
p190
(dp191
g15
(lp192
F0.15988692199566437
aF0.0018456044104471691
asg9
(lp193
F15.487915983496752
aF1.024661050525251
asg17
(lp194
sg24
g55
sg26
(lp195
g57
ag48
asba(iTFClasses
function
p196
(dp197
g15
(lp198
F0.5440994358510389
aF0.026578777192464285
aF0.002755095670991112
asg9
(lp199
F2.609622213332409e-06
aF0.7786064990204175
aF0.07118169805138996
asg17
(lp200
sg24
g63
sg26
(lp201
g57
ag57
ag57
asbasbas.