(dp0
S'b'
p1
(lp2
(iTFClasses
TF
p3
(dp4
S'SingleBinFunc'
p5
(iTFClasses
function
p6
(dp7
S'DG_rel_weight'
p8
F0.7
sS'par_values'
p9
(lp10
F1799.3969058221408
aF32.00789588210462
aF4.517405562091015
aF20.23499207121171
aF12.452817853758402
asS'DG_mean'
p11
(lp12
S'[1]'
p13
aS'[3]'
p14
asS'par_errors'
p15
(lp16
F27.488137330386262
aF0.14580247328671447
aF0.14567216876626432
aF1.8748646791494892
aF0.8250910097032929
asS'par_limits'
p17
(lp18
(I1
F0.0
F2000.0
tp19
a(I2
F0.0
F2000.0
tp20
a(I3
F0.0
F2000.0
tp21
a(I4
F0.0
F2000.0
tp22
asS'Is_DG'
p23
I01
sS'str'
p24
S'[0]*(0.7*exp(-0.5*((x-([1]))/([2]))**2)+(1-0.7)*exp(-0.5*((x-([3]))/([2]+[4]))**2))'
p25
sS'par_initials'
p26
(lp27
S'0'
p28
aS'1.1*mean'
p29
aS'1.0*rms'
p30
aS'0.7*mean'
p31
aS'0.5*rms'
p32
asS'fitrange'
p33
(F30.1
F500.0
tp34
sS'DG_rms'
p35
(lp36
S'[2]'
p37
aS'[2]+[4]'
p38
asbsS'i_eta'
p39
I0
sS'particle'
p40
g1
sS'AcrossBinFuncs'
p41
(lp42
(iTFClasses
function
p43
(dp44
g15
(lp45
sg9
(lp46
sg17
(lp47
sg24
S'1'
p48
sg26
(lp49
sba(iTFClasses
function
p50
(dp51
g15
(lp52
F0.0612156960921955
aF0.0006284193779584585
asg9
(lp53
F-4.533326112835037
aF1.0124234799189051
asg17
(lp54
sg24
S'[0]+[1]*x'
p55
sg26
(lp56
S'0'
p57
ag48
asba(iTFClasses
function
p58
(dp59
g15
(lp60
F0.347047028643656
aF0.0060703648995585726
aF0.0011739093552094433
asg9
(lp61
F-2.5335494365385018e-06
aF1.0507839304548372
aF0.05027220028671387
asg17
(lp62
sg24
S'sqrt([0]*[0] + x*[1]*[1] + x*x*[2]*[2])'
p63
sg26
(lp64
g57
ag57
ag57
asba(iTFClasses
function
p65
(dp66
g15
(lp67
F0.1432665626654182
aF0.0012921755284761552
asg9
(lp68
F-10.680361785045386
aF0.9844823677744183
asg17
(lp69
sg24
g55
sg26
(lp70
g57
ag48
asba(iTFClasses
function
p71
(dp72
g15
(lp73
F0.1776913002593145
aF0.06267102760807296
aF0.000613795909996218
asg9
(lp74
F-4.912216659041785
aF3.5912570125170985e-07
aF0.1342988797766395
asg17
(lp75
sg24
g63
sg26
(lp76
g57
ag57
ag57
asbasba(iTFClasses
TF
p77
(dp78
g5
(iTFClasses
function
p79
(dp80
g8
F0.7
sg9
(lp81
F1580.1508380568118
aF31.615543764707986
aF5.728046625909977
aF13.752422925398356
aF13.982636209114329
asg11
(lp82
g13
ag14
asg15
(lp83
F106.52324086090714
aF0.377965432585448
aF0.4543371457952916
aF10.94423935951594
aF4.432240300020206
asg17
(lp84
g19
ag20
ag21
ag22
asg23
I01
sg24
g25
sg26
(lp85
g28
ag29
ag30
ag31
ag32
asg33
g34
sg35
(lp86
g37
ag38
asbsg39
I1
sg40
g1
sg41
(lp87
(iTFClasses
function
p88
(dp89
g15
(lp90
sg9
(lp91
sg17
(lp92
sg24
g48
sg26
(lp93
sba(iTFClasses
function
p94
(dp95
g15
(lp96
F0.09619386402071839
aF0.000998670612062683
asg9
(lp97
F-4.59480680479059
aF0.9976392590546699
asg17
(lp98
sg24
g55
sg26
(lp99
g57
ag48
asba(iTFClasses
function
p100
(dp101
g15
(lp102
F0.4159290597561772
aF0.009392517660453858
aF0.0015657724191258133
asg9
(lp103
F-2.9664030646233444e-07
aF1.1668091890090901
aF0.067882478069386
asg17
(lp104
sg24
g63
sg26
(lp105
g57
ag57
ag57
asba(iTFClasses
function
p106
(dp107
g15
(lp108
F0.23142504730223193
aF0.0020782756955636935
asg9
(lp109
F-9.940711228020833
aF0.9596628912876928
asg17
(lp110
sg24
g55
sg26
(lp111
g57
ag48
asba(iTFClasses
function
p112
(dp113
g15
(lp114
F0.3475410238522637
aF0.09941013882055943
aF0.0009759823371780729
asg9
(lp115
F-3.730287260936055
aF8.215866546140414e-06
aF0.12644834727166868
asg17
(lp116
sg24
g63
sg26
(lp117
g57
ag57
ag57
asbasbasS'l'
p118
(lp119
(iTFClasses
TF
p120
(dp121
g5
(iTFClasses
function
p122
(dp123
g8
F0.7
sg9
(lp124
F2087.3629983499254
aF30.642884008972302
aF5.941771013062036
aF13.886753089566884
aF13.899869409703891
asg11
(lp125
g13
ag14
asg15
(lp126
F61.918002893889096
aF0.3169276252870663
aF0.23579727339384515
aF3.6402795307140536
aF1.4515006226245575
asg17
(lp127
g19
ag20
ag21
ag22
asg23
I01
sg24
g25
sg26
(lp128
g28
ag29
ag30
ag31
ag32
asg33
g34
sg35
(lp129
g37
ag38
asbsg39
I0
sg40
g118
sg41
(lp130
(iTFClasses
function
p131
(dp132
g15
(lp133
sg9
(lp134
sg17
(lp135
sg24
g48
sg26
(lp136
sba(iTFClasses
function
p137
(dp138
g15
(lp139
F0.05503928432061403
aF0.0006960340016070037
asg9
(lp140
F-1.7956981242021584
aF1.0342423292912701
asg17
(lp141
sg24
g55
sg26
(lp142
g57
ag48
asba(iTFClasses
function
p143
(dp144
g15
(lp145
F1.6813377882811769
aF0.006651545608575691
aF0.0011244300183593122
asg9
(lp146
F-1.3884564139207253e-06
aF0.8974172658641039
aF0.056590132549066266
asg17
(lp147
sg24
g63
sg26
(lp148
g57
ag57
ag57
asba(iTFClasses
function
p149
(dp150
g15
(lp151
F0.1402745711940705
aF0.001468219111995176
asg9
(lp152
F-7.375668583604719
aF1.0581205980887856
asg17
(lp153
sg24
g55
sg26
(lp154
g57
ag48
asba(iTFClasses
function
p155
(dp156
g15
(lp157
F0.5404289276064308
aF0.09112254471258682
aF0.004047454142868861
asg9
(lp158
F5.887882214817233
aF0.7378726797206144
aF0.08028601373391346
asg17
(lp159
sg24
g63
sg26
(lp160
g57
ag57
ag57
asbasba(iTFClasses
TF
p161
(dp162
g5
(iTFClasses
function
p163
(dp164
g8
F0.7
sg9
(lp165
F1505.6857430661466
aF30.96370339098009
aF7.202830883763278
aF10.302420652001931
aF14.428878208073591
asg11
(lp166
g13
ag14
asg15
(lp167
F88.92062074666752
aF0.44534564625042705
aF0.3801087721722052
aF9.450699098812077
aF3.6608896966326974
asg17
(lp168
g19
ag20
ag21
ag22
asg23
I01
sg24
g25
sg26
(lp169
g28
ag29
ag30
ag31
ag32
asg33
g34
sg35
(lp170
g37
ag38
asbsg39
I1
sg40
g118
sg41
(lp171
(iTFClasses
function
p172
(dp173
g15
(lp174
sg9
(lp175
sg17
(lp176
sg24
g48
sg26
(lp177
sba(iTFClasses
function
p178
(dp179
g15
(lp180
F0.1059573472815649
aF0.0012269938000789102
asg9
(lp181
F-1.8485541417098934
aF1.0334375655664
asg17
(lp182
sg24
g55
sg26
(lp183
g57
ag48
asba(iTFClasses
function
p184
(dp185
g15
(lp186
F0.8393128565076289
aF0.04661210230857911
aF0.004645422412143908
asg9
(lp187
F2.54988726380359
aF1.0732511010148833
aF0.05562392472555246
asg17
(lp188
sg24
g63
sg26
(lp189
g57
ag57
ag57
asba(iTFClasses
function
p190
(dp191
g15
(lp192
F0.23048657340747827
aF0.0023579299882158762
asg9
(lp193
F-7.068962913118521
aF1.0411565813134709
asg17
(lp194
sg24
g55
sg26
(lp195
g57
ag48
asba(iTFClasses
function
p196
(dp197
g15
(lp198
F0.8629403404210241
aF0.24560568337417926
aF0.006156296881449554
asg9
(lp199
F6.484586013910617
aF0.4678281157719006
aF0.08848155255767172
asg17
(lp200
sg24
g63
sg26
(lp201
g57
ag57
ag57
asbasbas.