(dp0
S'b'
p1
(lp2
(iTFClasses
TF
p3
(dp4
S'SingleBinFunc'
p5
(iTFClasses
function
p6
(dp7
S'DG_rel_weight'
p8
F0.7
sS'par_values'
p9
(lp10
F703.8559581004135
aF30.354204562461074
aF6.574504584114793
aF5.644474665444932e-06
aF17.689859925613447
asS'DG_mean'
p11
(lp12
S'[1]'
p13
aS'[3]'
p14
asS'par_errors'
p15
(lp16
F18.747338332732078
aF0.49447920431688885
aF0.2768907366301754
aF144.9141411414838
aF0.5862576563999689
asS'par_limits'
p17
(lp18
(I1
F0.0
F2000.0
tp19
a(I2
F0.0
F2000.0
tp20
a(I3
F0.0
F2000.0
tp21
a(I4
F0.0
F2000.0
tp22
asS'Is_DG'
p23
I01
sS'str'
p24
S'[0]*(0.7*exp(-0.5*((x-([1]))/([2]))**2)+(1-0.7)*exp(-0.5*((x-([3]))/([2]+[4]))**2))'
p25
sS'par_initials'
p26
(lp27
S'0'
p28
aS'1.1*mean'
p29
aS'1.0*rms'
p30
aS'0.7*mean'
p31
aS'0.5*rms'
p32
asS'fitrange'
p33
(F30.1
F500.0
tp34
sS'DG_rms'
p35
(lp36
S'[2]'
p37
aS'[2]+[4]'
p38
asbsS'i_eta'
p39
I0
sS'particle'
p40
g1
sS'AcrossBinFuncs'
p41
(lp42
(iTFClasses
function
p43
(dp44
g15
(lp45
sg9
(lp46
sg17
(lp47
sg24
S'1'
p48
sg26
(lp49
sba(iTFClasses
function
p50
(dp51
g15
(lp52
F0.08186178573287435
aF0.0006451933834785684
asg9
(lp53
F-2.777037368718521
aF0.9313947272304183
asg17
(lp54
sg24
S'[0]+[1]*x'
p55
sg26
(lp56
S'0'
p57
ag48
asba(iTFClasses
function
p58
(dp59
g15
(lp60
F0.33383999764801453
aF0.04300496267173727
aF0.0022853786960122593
asg9
(lp61
F5.251848734039252
aF0.6973018603240665
aF0.05025547711034049
asg17
(lp62
sg24
S'sqrt([0]*[0] + x*[1]*[1] + x*x*[2]*[2])'
p63
sg26
(lp64
g57
ag57
ag57
asba(iTFClasses
function
p65
(dp66
g15
(lp67
F0.16624242980575096
aF0.0012675918640872958
asg9
(lp68
F0.11823507513109277
aF0.8056069407402829
asg17
(lp69
sg24
g55
sg26
(lp70
g57
ag48
asba(iTFClasses
function
p71
(dp72
g15
(lp73
F0.6535451407254321
aF0.1766220987966365
aF0.003433879429486629
asg9
(lp74
F6.01388520529455
aF0.3608366575721938
aF0.06925377689557204
asg17
(lp75
sg24
g63
sg26
(lp76
g57
ag57
ag57
asbasba(iTFClasses
TF
p77
(dp78
g5
(iTFClasses
function
p79
(dp80
g8
F0.7
sg9
(lp81
F498.7229877794517
aF28.10884936953817
aF6.596353371617791
aF2.4037971613211084e-07
aF16.535395305729118
asg11
(lp82
g13
ag14
asg15
(lp83
F38.141708385446556
aF1.09483632030466
aF0.46601706034110624
aF17.954671764025044
aF0.9463739540488962
asg17
(lp84
g19
ag20
ag21
ag22
asg23
I01
sg24
g25
sg26
(lp85
g28
ag29
ag30
ag31
ag32
asg33
g34
sg35
(lp86
g37
ag38
asbsg39
I1
sg40
g1
sg41
(lp87
(iTFClasses
function
p88
(dp89
g15
(lp90
sg9
(lp91
sg17
(lp92
sg24
g48
sg26
(lp93
sba(iTFClasses
function
p94
(dp95
g15
(lp96
F0.13353872460302238
aF0.001074457343673834
asg9
(lp97
F-4.282223613294734
aF0.891493504504157
asg17
(lp98
sg24
g55
sg26
(lp99
g57
ag48
asba(iTFClasses
function
p100
(dp101
g15
(lp102
F0.6994996897600992
aF0.051050723917951346
aF0.004041940158174315
asg9
(lp103
F3.714397890565238
aF0.8972314260927374
aF0.044821887491676496
asg17
(lp104
sg24
g63
sg26
(lp105
g57
ag57
ag57
asba(iTFClasses
function
p106
(dp107
g15
(lp108
F0.2775658609280639
aF0.002154584082736166
asg9
(lp109
F0.04924996668675307
aF0.7670089008294388
asg17
(lp110
sg24
g55
sg26
(lp111
g57
ag48
asba(iTFClasses
function
p112
(dp113
g15
(lp114
F1.5476339583048901
aF0.19496200885706277
aF0.006457335626155604
asg9
(lp115
F3.7487254999800474
aF0.49034991523838806
aF0.05665538907886922
asg17
(lp116
sg24
g63
sg26
(lp117
g57
ag57
ag57
asbasbasS'l'
p118
(lp119
(iTFClasses
TF
p120
(dp121
g5
(iTFClasses
function
p122
(dp123
g8
F0.7
sg9
(lp124
F1541.6844412244852
aF27.737428531141806
aF7.43261108303106
aF1999.999999984343
aF769.4235232363615
asg11
(lp125
g13
ag14
asg15
(lp126
F58.54615092289884
aF0.5812337694926502
aF0.25983842010851577
aF1370.44103860248
aF10.59653207448298
asg17
(lp127
g19
ag20
ag21
ag22
asg23
I01
sg24
g25
sg26
(lp128
g28
ag29
ag30
ag31
ag32
asg33
g34
sg35
(lp129
g37
ag38
asbsg39
I0
sg40
g118
sg41
(lp130
(iTFClasses
function
p131
(dp132
g15
(lp133
sg9
(lp134
sg17
(lp135
sg24
g48
sg26
(lp136
sba(iTFClasses
function
p137
(dp138
g15
(lp139
F0.054488355192590945
aF0.0005077213829130254
asg9
(lp140
F-0.7209588014719862
aF0.945988616378154
asg17
(lp141
sg24
g55
sg26
(lp142
g57
ag48
asba(iTFClasses
function
p143
(dp144
g15
(lp145
F0.3905604224860024
aF0.0234508540028466
aF0.0018358548519364572
asg9
(lp146
F2.46523108253645
aF0.8170488013532323
aF0.04568228250245665
asg17
(lp147
sg24
g63
sg26
(lp148
g57
ag57
ag57
asba(iTFClasses
function
p149
(dp150
g15
(lp151
F0.08337555150843612
aF0.0007472920222505764
asg9
(lp152
F3.8135595808643457
aF0.8584742609076771
asg17
(lp153
sg24
g55
sg26
(lp154
g57
ag48
asba(iTFClasses
function
p155
(dp156
g15
(lp157
F0.5543634880288143
aF0.04621795921859478
aF0.004237119539445379
asg9
(lp158
F4.196705444044645
aF0.9029031325371998
aF0.040213590008689175
asg17
(lp159
sg24
g63
sg26
(lp160
g57
ag57
ag57
asbasba(iTFClasses
TF
p161
(dp162
g5
(iTFClasses
function
p163
(dp164
g8
F0.7
sg9
(lp165
F646.2516330003573
aF30.626556491011204
aF5.050543647714401
aF0.00012279829253447616
aF17.860316856626813
asg11
(lp166
g13
ag14
asg15
(lp167
F20.7146569621445
aF0.23113687168302377
aF0.18801948961455484
aF230.95532538561275
aF2.161210350524801
asg17
(lp168
g19
ag20
ag21
ag22
asg23
I01
sg24
g25
sg26
(lp169
g28
ag29
ag30
ag31
ag32
asg33
g34
sg35
(lp170
g37
ag38
asbsg39
I1
sg40
g118
sg41
(lp171
(iTFClasses
function
p172
(dp173
g15
(lp174
sg9
(lp175
sg17
(lp176
sg24
g48
sg26
(lp177
sba(iTFClasses
function
p178
(dp179
g15
(lp180
F0.06193119366424571
aF0.000628075656510218
asg9
(lp181
F-1.7357979182565721
aF0.9147714592611611
asg17
(lp182
sg24
g55
sg26
(lp183
g57
ag48
asba(iTFClasses
function
p184
(dp185
g15
(lp186
F0.6264536320953931
aF0.04268320009721958
aF0.0033149099167073194
asg9
(lp187
F3.0822813012238033
aF0.8596067327557667
aF0.047072973573228226
asg17
(lp188
sg24
g63
sg26
(lp189
g57
ag57
ag57
asba(iTFClasses
function
p190
(dp191
g15
(lp192
F0.12904854535123525
aF0.001207598666296821
asg9
(lp193
F3.3661246892671937
aF0.8209732083439519
asg17
(lp194
sg24
g55
sg26
(lp195
g57
ag48
asba(iTFClasses
function
p196
(dp197
g15
(lp198
F0.5916276059290654
aF0.13730726531562637
aF0.005282526884334763
asg9
(lp199
F6.661784305907775
aF0.5028907030602282
aF0.05303790169502077
asg17
(lp200
sg24
g63
sg26
(lp201
g57
ag57
ag57
asbasbas.