(dp0
S'b'
p1
(lp2
(iTFClasses
TF
p3
(dp4
S'SingleBinFunc'
p5
S'[0]*exp(-0.5*((x-[1])/[2])**2)'
p6
sS'i_eta'
p7
I0
sS'particle'
p8
S'b'
p9
sS'AcrossBinFuncs'
p10
(lp11
(iTFClasses
function
p12
(dp13
S'par_errors'
p14
(lp15
sS'par_values'
p16
(lp17
sS'str'
p18
S'1'
p19
sS'par_initials'
p20
(lp21
sba(iTFClasses
function
p22
(dp23
S'counter'
p24
I1
sg14
(lp25
F0.08070919072592625
aF0.0012201783858940742
asg16
(lp26
F2.5453198641444215
aF0.8461607330641635
asg18
S'[0]+[1]*x'
p27
sg20
(lp28
S'0'
p29
ag19
asba(iTFClasses
function
p30
(dp31
g24
I1
sg14
(lp32
F0.3013607652703276
aF0.012894002243109338
aF0.0012193294324756084
asg16
(lp33
F-6.620113416649703e-06
aF0.7695547537033017
aF0.11105584174093289
asg18
S'sqrt([0]*[0] + x*[1]*[1] + x*x*[2]*[2])'
p34
sg20
(lp35
g29
ag29
ag29
asbasba(iTFClasses
TF
p36
(dp37
g5
g6
sg7
I1
sg8
g9
sg10
(lp38
(iTFClasses
function
p39
(dp40
g14
(lp41
sg16
(lp42
sg18
g19
sg20
(lp43
sba(iTFClasses
function
p44
(dp45
g24
I1
sg14
(lp46
F0.1904812021900755
aF0.001755153425912443
asg16
(lp47
F9.797727438232581
aF0.7853043344546952
asg18
g27
sg20
(lp48
g29
ag19
asba(iTFClasses
function
p49
(dp50
g24
I1
sg14
(lp51
F1.3445070826607974
aF0.043987352695873845
aF0.0016630344336455221
asg16
(lp52
F-9.088566212819317e-05
aF0.6926273803401647
aF0.16159256442149456
asg18
g34
sg20
(lp53
g29
ag29
ag29
asbasbasS'l'
p54
(lp55
(iTFClasses
TF
p56
(dp57
g5
g6
sg7
I0
sg8
S'l'
p58
sg10
(lp59
(iTFClasses
function
p60
(dp61
g14
(lp62
sg16
(lp63
sg18
g19
sg20
(lp64
sba(iTFClasses
function
p65
(dp66
g24
I1
sg14
(lp67
F0.0514247917308369
aF0.0008943368847174169
asg16
(lp68
F2.76746373748636
aF0.8981424966829916
asg18
g27
sg20
(lp69
g29
ag19
asba(iTFClasses
function
p70
(dp71
g24
I1
sg14
(lp72
F0.23415950972835825
aF0.007585413766595916
aF0.0010068230816027348
asg16
(lp73
F-6.934918775342318e-06
aF0.8297574312280743
aF0.09366873366828216
asg18
g34
sg20
(lp74
g29
ag29
ag29
asbasba(iTFClasses
TF
p75
(dp76
g5
g6
sg7
I1
sg8
g58
sg10
(lp77
(iTFClasses
function
p78
(dp79
g14
(lp80
sg16
(lp81
sg18
g19
sg20
(lp82
sba(iTFClasses
function
p83
(dp84
g24
I1
sg14
(lp85
F0.11056037954744756
aF0.0011787865038613624
asg16
(lp86
F10.497338446214137
aF0.8615465819993406
asg18
g27
sg20
(lp87
g29
ag19
asba(iTFClasses
function
p88
(dp89
g24
I1
sg14
(lp90
F0.47415864239610256
aF0.02095342866185755
aF0.0012355018812681424
asg16
(lp91
F2.6209117963927817e-06
aF0.9110496328398402
aF0.16032357901405062
asg18
g34
sg20
(lp92
g29
ag29
ag29
asbasbas.