(dp0
S'b'
p1
(lp2
(iTFClasses
TF
p3
(dp4
S'SingleBinFunc'
p5
(iTFClasses
function
p6
(dp7
S'DG_rel_weight'
p8
F0.7
sS'par_values'
p9
(lp10
F9617.475082897752
aF31.905920019202007
aF4.63097232148324
aF20.92602391422671
aF11.119920851455522
asS'DG_mean'
p11
(lp12
S'[1]'
p13
aS'[3]'
p14
asS'par_errors'
p15
(lp16
F74.0104352222188
aF0.0681413570902123
aF0.07238708191320553
aF0.9445462396072131
aF0.3918378118983874
asS'par_limits'
p17
(lp18
(I1
F0.0
F2000.0
tp19
a(I2
F0.0
F2000.0
tp20
a(I3
F0.0
F2000.0
tp21
a(I4
F0.0
F2000.0
tp22
asS'Is_DG'
p23
I01
sS'str'
p24
S'[0]*(0.7*exp(-0.5*((x-([1]))/([2]))**2)+(1-0.7)*exp(-0.5*((x-([3]))/([2]+[4]))**2))'
p25
sS'par_initials'
p26
(lp27
S'0'
p28
aS'1.1*mean'
p29
aS'1.0*rms'
p30
aS'0.7*mean'
p31
aS'0.5*rms'
p32
asS'fitrange'
p33
(F30.1
F500.0
tp34
sS'DG_rms'
p35
(lp36
S'[2]'
p37
aS'[2]+[4]'
p38
asbsS'i_eta'
p39
I0
sS'particle'
p40
g1
sS'AcrossBinFuncs'
p41
(lp42
(iTFClasses
function
p43
(dp44
g15
(lp45
sg9
(lp46
sg17
(lp47
sg24
S'1'
p48
sg26
(lp49
sba(iTFClasses
function
p50
(dp51
g15
(lp52
F0.02823135943500385
aF0.0003206400989097701
asg9
(lp53
F-3.932064727901277
aF1.0170797395271844
asg17
(lp54
sg24
S'[0]+[1]*x'
p55
sg26
(lp56
S'0'
p57
ag48
asba(iTFClasses
function
p58
(dp59
g15
(lp60
F0.21021477063972152
aF0.0027946756185714973
aF0.000587095409676464
asg9
(lp61
F-4.462037313312349e-06
aF1.0148738756092628
aF0.05022860757372902
asg17
(lp62
sg24
S'sqrt([0]*[0] + x*[1]*[1] + x*x*[2]*[2])'
p63
sg26
(lp64
g57
ag57
ag57
asba(iTFClasses
function
p65
(dp66
g15
(lp67
F0.05841583489805437
aF0.0005976455734840109
asg9
(lp68
F-8.481406202086221
aF0.9651602987951848
asg17
(lp69
sg24
g55
sg26
(lp70
g57
ag48
asba(iTFClasses
function
p71
(dp72
g15
(lp73
F0.08405660157360328
aF0.024164704978433902
aF0.00029862547006159903
asg9
(lp74
F-3.3885565608855406
aF8.516317277492468e-08
aF0.11201026806792361
asg17
(lp75
sg24
g63
sg26
(lp76
g57
ag57
ag57
asbasba(iTFClasses
TF
p77
(dp78
g5
(iTFClasses
function
p79
(dp80
g8
F0.7
sg9
(lp81
F8089.4780752701345
aF31.98017022364963
aF5.300429303711551
aF24.240425042837188
aF9.275073953873282
asg11
(lp82
g13
ag14
asg15
(lp83
F70.75152856418805
aF0.08231485538184913
aF0.0933714380299544
aF1.113308464127826
aF0.44882909412929983
asg17
(lp84
g19
ag20
ag21
ag22
asg23
I01
sg24
g25
sg26
(lp85
g28
ag29
ag30
ag31
ag32
asg33
g34
sg35
(lp86
g37
ag38
asbsg39
I1
sg40
g1
sg41
(lp87
(iTFClasses
function
p88
(dp89
g15
(lp90
sg9
(lp91
sg17
(lp92
sg24
g48
sg26
(lp93
sba(iTFClasses
function
p94
(dp95
g15
(lp96
F0.04328790193039984
aF0.00047909317664910327
asg9
(lp97
F-4.352640077841021
aF1.0123177056600277
asg17
(lp98
sg24
g55
sg26
(lp99
g57
ag48
asba(iTFClasses
function
p100
(dp101
g15
(lp102
F0.21932612121666759
aF0.003872975601828382
aF0.0010422923192603985
asg9
(lp103
F-4.317198050904167e-12
aF1.2205262666396086
aF0.04684547272167418
asg17
(lp104
sg24
g63
sg26
(lp105
g57
ag57
ag57
asba(iTFClasses
function
p106
(dp107
g15
(lp108
F0.09764089455165446
aF0.0009702974469239144
asg9
(lp109
F-8.397612197201354
aF0.9520896705249399
asg17
(lp110
sg24
g55
sg26
(lp111
g57
ag48
asba(iTFClasses
function
p112
(dp113
g15
(lp114
F0.2798010433574941
aF0.028131353024030088
aF0.00026506142088642746
asg9
(lp115
F-1.0906855269373586e-10
aF1.662757964822009e-11
aF0.10960719771291715
asg17
(lp116
sg24
g63
sg26
(lp117
g57
ag57
ag57
asbasbasS'l'
p118
(lp119
(iTFClasses
TF
p120
(dp121
g5
(iTFClasses
function
p122
(dp123
g8
F0.7
sg9
(lp124
F23144.30341713521
aF30.461647442551087
aF5.91471739193461
aF17.09244863702697
aF11.366656231183825
asg11
(lp125
g13
ag14
asg15
(lp126
F234.24929362668829
aF0.10033678769355525
aF0.07672618370657691
aF1.0613517962350656
aF0.39536209469726025
asg17
(lp127
g19
ag20
ag21
ag22
asg23
I01
sg24
g25
sg26
(lp128
g28
ag29
ag30
ag31
ag32
asg33
g34
sg35
(lp129
g37
ag38
asbsg39
I0
sg40
g118
sg41
(lp130
(iTFClasses
function
p131
(dp132
g15
(lp133
sg9
(lp134
sg17
(lp135
sg24
g48
sg26
(lp136
sba(iTFClasses
function
p137
(dp138
g15
(lp139
F0.022425914880061865
aF0.0002929899189053442
asg9
(lp140
F-1.633482581246689
aF1.024058831485207
asg17
(lp141
sg24
g55
sg26
(lp142
g57
ag48
asba(iTFClasses
function
p143
(dp144
g15
(lp145
F0.15255830540921916
aF0.012207590126996544
aF0.0009327531249306006
asg9
(lp146
F2.5190969284490596
aF0.8261771396478742
aF0.06357176910955589
asg17
(lp147
sg24
g63
sg26
(lp148
g57
ag57
ag57
asba(iTFClasses
function
p149
(dp150
g15
(lp151
F0.05123224027673217
aF0.0005844873498569537
asg9
(lp152
F-5.498843614990487
aF1.0082443728635626
asg17
(lp153
sg24
g55
sg26
(lp154
g57
ag48
asba(iTFClasses
function
p155
(dp156
g15
(lp157
F0.0332448327605574
aF0.1479603885594714
aF0.00035519771622559166
asg9
(lp158
F6.533274733283632
aF1.4618203767604763e-06
aF0.08111836026228215
asg17
(lp159
sg24
g63
sg26
(lp160
g57
ag57
ag57
asbasba(iTFClasses
TF
p161
(dp162
g5
(iTFClasses
function
p163
(dp164
g8
F0.7
sg9
(lp165
F17001.512426218946
aF31.350274484589935
aF6.879222462609524
aF14.898203611167782
aF12.043424804866643
asg11
(lp166
g13
ag14
asg15
(lp167
F262.6465115436239
aF0.10807339679819172
aF0.09884069515775362
aF2.1437656737952056
aF0.8073801370724336
asg17
(lp168
g19
ag20
ag21
ag22
asg23
I01
sg24
g25
sg26
(lp169
g28
ag29
ag30
ag31
ag32
asg33
g34
sg35
(lp170
g37
ag38
asbsg39
I1
sg40
g118
sg41
(lp171
(iTFClasses
function
p172
(dp173
g15
(lp174
sg9
(lp175
sg17
(lp176
sg24
g48
sg26
(lp177
sba(iTFClasses
function
p178
(dp179
g15
(lp180
F0.03569849101059048
aF0.00044568498395404195
asg9
(lp181
F-1.5324378604080904
aF1.0323039325634604
asg17
(lp182
sg24
g55
sg26
(lp183
g57
ag48
asba(iTFClasses
function
p184
(dp185
g15
(lp186
F0.2386558505916556
aF0.015860992211075894
aF0.001718222637375484
asg9
(lp187
F2.7368951544044484
aF1.0611750808506555
aF0.05672980827713989
asg17
(lp188
sg24
g63
sg26
(lp189
g57
ag57
ag57
asba(iTFClasses
function
p190
(dp191
g15
(lp192
F0.0780294314336902
aF0.0008673480264236
asg9
(lp193
F-5.616779534855766
aF1.0057575449253942
asg17
(lp194
sg24
g55
sg26
(lp195
g57
ag48
asba(iTFClasses
function
p196
(dp197
g15
(lp198
F0.059472964610349094
aF0.2289086992715506
aF0.00048145014825549476
asg9
(lp199
F5.444539125916347
aF-1.0551554057053832e-05
aF0.08809122781085728
asg17
(lp200
sg24
g63
sg26
(lp201
g57
ag57
ag57
asbasbas.