(dp0
S'b'
p1
(lp2
(iTFClasses
TF
p3
(dp4
S'SingleBinFunc'
p5
(iTFClasses
function
p6
(dp7
S'DG_rel_weight'
p8
F0.7
sS'par_values'
p9
(lp10
F488.15481263484594
aF32.357206995631344
aF6.549376783992256
aF20.000000000544393
aF9.360060553503246
asS'DG_mean'
p11
(lp12
S'[1]'
p13
aS'[3]'
p14
asS'par_errors'
p15
(lp16
F9.707146952755604
aF0.4261216040535807
aF0.27400305966818195
aF0.7561930361328066
aF0.46690147185873787
asS'par_limits'
p17
(lp18
(I1
F20.0
F2000.0
tp19
a(I2
F0.0
F2000.0
tp20
a(I3
F20.0
F2000.0
tp21
a(I4
F0.0
F2000.0
tp22
asS'Is_DG'
p23
I01
sS'str'
p24
S'[0]*(0.7*exp(-0.5*((x-([1]))/([2]))**2)+(1-0.7)*exp(-0.5*((x-([3]))/([2]+[4]))**2))'
p25
sS'par_initials'
p26
(lp27
S'0'
p28
aS'1.2*mean'
p29
aS'0.5*rms'
p30
aS'0.8*mean'
p31
aS'1.0*rms'
p32
asS'fitrange'
p33
(F30.0
F500.0
tp34
sS'DG_rms'
p35
(lp36
S'[2]'
p37
aS'[2]+[4]'
p38
asbsS'i_eta'
p39
I0
sS'particle'
p40
g1
sS'AcrossBinFuncs'
p41
(lp42
(iTFClasses
function
p43
(dp44
g15
(lp45
sg9
(lp46
sg17
(lp47
sg24
S'1'
p48
sg26
(lp49
sba(iTFClasses
function
p50
(dp51
g15
(lp52
F0.12244112097856298
aF0.0009972163513197704
asg9
(lp53
F-3.469541612363264
aF0.9194185690689256
asg17
(lp54
sg24
S'[0]+[1]*x'
p55
sg26
(lp56
S'0'
p57
ag48
asba(iTFClasses
function
p58
(dp59
g15
(lp60
F0.675117275004991
aF0.05520051597690335
aF0.004220782173961392
asg9
(lp61
F3.387476938315282
aF0.7604328679275917
aF0.041001470793697474
asg17
(lp62
sg24
S'sqrt([0]*[0] + x*[1]*[1] + x*x*[2]*[2])'
p63
sg26
(lp64
g57
ag57
ag57
asba(iTFClasses
function
p65
(dp66
g15
(lp67
F0.199398685425634
aF0.0016657707764422124
asg9
(lp68
F-1.495068264203885
aF0.819581849666243
asg17
(lp69
sg24
g55
sg26
(lp70
g57
ag48
asba(iTFClasses
function
p71
(dp72
g15
(lp73
F0.22527796744778703
aF0.321557710499069
aF0.0009480692202946717
asg9
(lp74
F3.865393718115568
aF6.263849414625477e-10
aF0.06579018126947636
asg17
(lp75
sg24
g63
sg26
(lp76
g57
ag57
ag57
asbasba(iTFClasses
TF
p77
(dp78
g5
(iTFClasses
function
p79
(dp80
g8
F0.7
sg9
(lp81
F286.74163929849834
aF32.266030979039066
aF5.4491593986868425
aF20.000000000107274
aF10.035935573941002
asg11
(lp82
g13
ag14
asg15
(lp83
F7.467060270738981
aF0.4538097691626639
aF0.31411289579785784
aF0.9746857007194603
aF0.5182063399558627
asg17
(lp84
g19
ag20
ag21
ag22
asg23
I01
sg24
g25
sg26
(lp85
g28
ag29
ag30
ag31
ag32
asg33
g34
sg35
(lp86
g37
ag38
asbsg39
I1
sg40
g1
sg41
(lp87
(iTFClasses
function
p88
(dp89
g15
(lp90
sg9
(lp91
sg17
(lp92
sg24
g48
sg26
(lp93
sba(iTFClasses
function
p94
(dp95
g15
(lp96
F0.17616050675828923
aF0.001564534583723258
asg9
(lp97
F-5.727470324286845
aF0.8979071723147498
asg17
(lp98
sg24
g55
sg26
(lp99
g57
ag48
asba(iTFClasses
function
p100
(dp101
g15
(lp102
F0.3581647323140555
aF0.01796900512569594
aF0.0015795533606320759
asg9
(lp103
F-8.126486738523221e-08
aF0.6782334071161888
aF0.06491263716555716
asg17
(lp104
sg24
g63
sg26
(lp105
g57
ag57
ag57
asba(iTFClasses
function
p106
(dp107
g15
(lp108
F0.33327055924561116
aF0.0029350569009080384
asg9
(lp109
F3.183228040188543
aF0.7525775691417776
asg17
(lp110
sg24
g55
sg26
(lp111
g57
ag48
asba(iTFClasses
function
p112
(dp113
g15
(lp114
F0.8616994617978144
aF0.31428984076097216
aF0.0009399463994076633
asg9
(lp115
F-2.370092866732191e-12
aF-4.387282413791783e-10
aF0.05994241794282678
asg17
(lp116
sg24
g63
sg26
(lp117
g57
ag57
ag57
asbasbasS'l'
p118
(lp119
(iTFClasses
TF
p120
(dp121
g5
(iTFClasses
function
p122
(dp123
g8
F0.7
sg9
(lp124
F955.6986603189017
aF31.818113862629367
aF4.268726640032194
aF20.000000007910923
aF10.613654407381823
asg11
(lp125
g13
ag14
asg15
(lp126
F13.863727108680024
aF0.1861605337710408
aF0.14635716349681305
aF0.3946257750727824
aF0.2222565273001802
asg17
(lp127
g19
ag20
ag21
ag22
asg23
I01
sg24
g25
sg26
(lp128
g28
ag29
ag30
ag31
ag32
asg33
g34
sg35
(lp129
g37
ag38
asbsg39
I0
sg40
g118
sg41
(lp130
(iTFClasses
function
p131
(dp132
g15
(lp133
sg9
(lp134
sg17
(lp135
sg24
g48
sg26
(lp136
sba(iTFClasses
function
p137
(dp138
g15
(lp139
F0.06623682674419595
aF0.0006964520574106744
asg9
(lp140
F-1.9455311916404967
aF0.930411623510304
asg17
(lp141
sg24
g55
sg26
(lp142
g57
ag48
asba(iTFClasses
function
p143
(dp144
g15
(lp145
F0.4549672016876919
aF0.006781920306083808
aF0.0012468008421930071
asg9
(lp146
F-2.5847145488710453e-07
aF0.8381514500173901
aF0.04132117027760129
asg17
(lp147
sg24
g63
sg26
(lp148
g57
ag57
ag57
asba(iTFClasses
function
p149
(dp150
g15
(lp151
F0.13012431564910493
aF0.001268789736205439
asg9
(lp152
F-7.794167438110509
aF0.9349278487296737
asg17
(lp153
sg24
g55
sg26
(lp154
g57
ag48
asba(iTFClasses
function
p155
(dp156
g15
(lp157
F0.07616956252960186
aF0.05095190536061032
aF0.0010131299374583995
asg9
(lp158
F7.356473614419845
aF2.4591724202486512e-08
aF0.0455620109155479
asg17
(lp159
sg24
g63
sg26
(lp160
g57
ag57
ag57
asbasba(iTFClasses
TF
p161
(dp162
g5
(iTFClasses
function
p163
(dp164
g8
F0.7
sg9
(lp165
F501.4000534047331
aF30.94333277001737
aF4.89069940008191
aF20.000000026834044
aF9.414042706101245
asg11
(lp166
g13
ag14
asg15
(lp167
F11.999398955900045
aF0.39840144444329617
aF0.2466771598452211
aF1.354856533516232
aF0.37835721924522936
asg17
(lp168
g19
ag20
ag21
ag22
asg23
I01
sg24
g25
sg26
(lp169
g28
ag29
ag30
ag31
ag32
asg33
g34
sg35
(lp170
g37
ag38
asbsg39
I1
sg40
g118
sg41
(lp171
(iTFClasses
function
p172
(dp173
g15
(lp174
sg9
(lp175
sg17
(lp176
sg24
g48
sg26
(lp177
sba(iTFClasses
function
p178
(dp179
g15
(lp180
F0.07163039897134059
aF0.0006733034864493212
asg9
(lp181
F-2.518455989008306
aF0.9060807532104997
asg17
(lp182
sg24
g55
sg26
(lp183
g57
ag48
asba(iTFClasses
function
p184
(dp185
g15
(lp186
F0.45637964722992713
aF0.010060878811504052
aF0.002155937752778411
asg9
(lp187
F-4.1972403127415493e-10
aF0.9064940498541925
aF0.039526755322515476
asg17
(lp188
sg24
g63
sg26
(lp189
g57
ag57
ag57
asba(iTFClasses
function
p190
(dp191
g15
(lp192
F0.23478457613333173
aF0.002218545132714218
asg9
(lp193
F-2.107837284660196
aF0.8572902792318047
asg17
(lp194
sg24
g55
sg26
(lp195
g57
ag48
asba(iTFClasses
function
p196
(dp197
g15
(lp198
F0.11584013180679295
aF0.06435549371600341
aF0.0016647148292189367
asg9
(lp199
F7.256806443664939
aF-6.942416177147009e-08
aF0.04152258762004676
asg17
(lp200
sg24
g63
sg26
(lp201
g57
ag57
ag57
asbasbas.