(dp0
S'b'
p1
(lp2
(iTFClasses
TF
p3
(dp4
S'SingleBinFunc'
p5
(iTFClasses
function
p6
(dp7
S'DG_rel_weight'
p8
F0.7
sS'par_values'
p9
(lp10
F3504.0714103251694
aF31.253790583164132
aF4.919011263350481
aF20.01098956008729
aF12.085293892788563
asS'DG_mean'
p11
(lp12
S'[1]'
p13
aS'[3]'
p14
asS'par_errors'
p15
(lp16
F50.17926496422817
aF0.15607265435973972
aF0.14545094541978942
aF1.7211985551566773
aF0.7229609814120579
asS'par_limits'
p17
(lp18
(I1
F0.0
F2000.0
tp19
a(I2
F0.0
F2000.0
tp20
a(I3
F0.0
F2000.0
tp21
a(I4
F0.0
F2000.0
tp22
asS'Is_DG'
p23
I01
sS'str'
p24
S'[0]*(0.7*exp(-0.5*((x-([1]))/([2]))**2)+(1-0.7)*exp(-0.5*((x-([3]))/([2]+[4]))**2))'
p25
sS'par_initials'
p26
(lp27
S'0'
p28
aS'1.1*mean'
p29
aS'1.0*rms'
p30
aS'0.7*mean'
p31
aS'0.5*rms'
p32
asS'fitrange'
p33
(F30.1
F500.0
tp34
sS'DG_rms'
p35
(lp36
S'[2]'
p37
aS'[2]+[4]'
p38
asbsS'i_eta'
p39
I0
sS'particle'
p40
g1
sS'AcrossBinFuncs'
p41
(lp42
(iTFClasses
function
p43
(dp44
g15
(lp45
sg9
(lp46
sg17
(lp47
sg24
S'1'
p48
sg26
(lp49
sba(iTFClasses
function
p50
(dp51
g15
(lp52
F0.045169113401741574
aF0.0004592043835548918
asg9
(lp53
F-4.648173015712599
aF1.0073956673117586
asg17
(lp54
sg24
S'[0]+[1]*x'
p55
sg26
(lp56
S'0'
p57
ag48
asba(iTFClasses
function
p58
(dp59
g15
(lp60
F0.22607919829004092
aF0.004412301097171895
aF0.000857926922814631
asg9
(lp61
F1.572567644435869e-07
aF1.0893734247715723
aF0.051313340746263245
asg17
(lp62
sg24
S'sqrt([0]*[0] + x*[1]*[1] + x*x*[2]*[2])'
p63
sg26
(lp64
g57
ag57
ag57
asba(iTFClasses
function
p65
(dp66
g15
(lp67
F0.1076759189953977
aF0.0009547687139541667
asg9
(lp68
F-10.691752266788695
aF0.9796466472269942
asg17
(lp69
sg24
g55
sg26
(lp70
g57
ag48
asba(iTFClasses
function
p71
(dp72
g15
(lp73
F0.148901539185421
aF0.04943165191017329
aF0.00044971335203908736
asg9
(lp74
F4.414415980313412
aF-6.60082808961574e-07
aF0.1343281509684094
asg17
(lp75
sg24
g63
sg26
(lp76
g57
ag57
ag57
asbasba(iTFClasses
TF
p77
(dp78
g5
(iTFClasses
function
p79
(dp80
g8
F0.7
sg9
(lp81
F2849.4095371243834
aF31.932674515990467
aF5.101859025495203
aF23.698105290920978
aF10.517753249659867
asg11
(lp82
g13
ag14
asg15
(lp83
F34.86309140551407
aF0.13540231264153135
aF0.13699346038309468
aF1.5271303304422723
aF0.6555923306539313
asg17
(lp84
g19
ag20
ag21
ag22
asg23
I01
sg24
g25
sg26
(lp85
g28
ag29
ag30
ag31
ag32
asg33
g34
sg35
(lp86
g37
ag38
asbsg39
I1
sg40
g1
sg41
(lp87
(iTFClasses
function
p88
(dp89
g15
(lp90
sg9
(lp91
sg17
(lp92
sg24
g48
sg26
(lp93
sba(iTFClasses
function
p94
(dp95
g15
(lp96
F0.06890783677558188
aF0.0007085527674330176
asg9
(lp97
F-4.89963483475183
aF1.0001870763267842
asg17
(lp98
sg24
g55
sg26
(lp99
g57
ag48
asba(iTFClasses
function
p100
(dp101
g15
(lp102
F0.3087196672316765
aF0.0064392112972925806
aF0.0014488112493954307
asg9
(lp103
F-3.9707078952674554e-07
aF1.268084209985566
aF0.05299640404919175
asg17
(lp104
sg24
g63
sg26
(lp105
g57
ag57
ag57
asba(iTFClasses
function
p106
(dp107
g15
(lp108
F0.17169579930163664
aF0.0015148929957154427
asg9
(lp109
F-10.701202534047258
aF0.9652923523217638
asg17
(lp110
sg24
g55
sg26
(lp111
g57
ag48
asba(iTFClasses
function
p112
(dp113
g15
(lp114
F0.33435972574053385
aF0.07648789051616606
aF0.0006816463629834588
asg9
(lp115
F2.8368685310642174
aF-6.271638265224817e-07
aF0.12835698902173742
asg17
(lp116
sg24
g63
sg26
(lp117
g57
ag57
ag57
asbasbasS'l'
p118
(lp119
(iTFClasses
TF
p120
(dp121
g5
(iTFClasses
function
p122
(dp123
g8
F0.7
sg9
(lp124
F4097.101421037604
aF30.000556152533164
aF6.494132138439079
aF13.465475193206956
aF13.418439162177332
asg11
(lp125
g13
ag14
asg15
(lp126
F125.2342815540802
aF0.3123483382951324
aF0.23491188557661635
aF3.6334236897950785
aF1.371643324590611
asg17
(lp127
g19
ag20
ag21
ag22
asg23
I01
sg24
g25
sg26
(lp128
g28
ag29
ag30
ag31
ag32
asg33
g34
sg35
(lp129
g37
ag38
asbsg39
I0
sg40
g118
sg41
(lp130
(iTFClasses
function
p131
(dp132
g15
(lp133
sg9
(lp134
sg17
(lp135
sg24
g48
sg26
(lp136
sba(iTFClasses
function
p137
(dp138
g15
(lp139
F0.048667265432578835
aF0.0005685558087173809
asg9
(lp140
F-1.913780348440007
aF1.0295127665627946
asg17
(lp141
sg24
g55
sg26
(lp142
g57
ag48
asba(iTFClasses
function
p143
(dp144
g15
(lp145
F0.4302772317896253
aF0.02340964476105113
aF0.0018009335379096834
asg9
(lp146
F2.0319796513073958
aF0.8917371362813379
aF0.06032219757903126
asg17
(lp147
sg24
g63
sg26
(lp148
g57
ag57
ag57
asba(iTFClasses
function
p149
(dp150
g15
(lp151
F0.10606834859435163
aF0.0010963079032188356
asg9
(lp152
F-7.449282536699492
aF1.0549483029761644
asg17
(lp153
sg24
g55
sg26
(lp154
g57
ag48
asba(iTFClasses
function
p155
(dp156
g15
(lp157
F0.4898600492590402
aF0.06261303927278869
aF0.0032185340776498114
asg9
(lp158
F5.166869266194443
aF0.8385124286253225
aF0.07742553237577873
asg17
(lp159
sg24
g63
sg26
(lp160
g57
ag57
ag57
asbasba(iTFClasses
TF
p161
(dp162
g5
(iTFClasses
function
p163
(dp164
g8
F0.7
sg9
(lp165
F2784.5480746780595
aF31.338872417876694
aF6.86568910716534
aF17.400790679256705
aF12.154155665752953
asg11
(lp166
g13
ag14
asg15
(lp167
F79.56244227197139
aF0.25602405322183763
aF0.2307420140046368
aF3.902897871755572
aF1.5331920066280489
asg17
(lp168
g19
ag20
ag21
ag22
asg23
I01
sg24
g25
sg26
(lp169
g28
ag29
ag30
ag31
ag32
asg33
g34
sg35
(lp170
g37
ag38
asbsg39
I1
sg40
g118
sg41
(lp171
(iTFClasses
function
p172
(dp173
g15
(lp174
sg9
(lp175
sg17
(lp176
sg24
g48
sg26
(lp177
sba(iTFClasses
function
p178
(dp179
g15
(lp180
F0.07465404938656149
aF0.0008685488653668092
asg9
(lp181
F-1.8000587272485116
aF1.0371923531663843
asg17
(lp182
sg24
g55
sg26
(lp183
g57
ag48
asba(iTFClasses
function
p184
(dp185
g15
(lp186
F0.590503432002906
aF0.029947758259634985
aF0.0032009276167793755
asg9
(lp187
F2.317792370174554
aF1.1103775756824368
aF0.05509190707734952
asg17
(lp188
sg24
g63
sg26
(lp189
g57
ag57
ag57
asba(iTFClasses
function
p190
(dp191
g15
(lp192
F0.1671421325302896
aF0.0017011199791373123
asg9
(lp193
F-7.693178093640205
aF1.0510338188111623
asg17
(lp194
sg24
g55
sg26
(lp195
g57
ag48
asba(iTFClasses
function
p196
(dp197
g15
(lp198
F0.7282591388043355
aF0.13433723336063697
aF0.0043250975154750446
asg9
(lp199
F5.494907367301657
aF0.6153216746906961
aF0.09123127418795543
asg17
(lp200
sg24
g63
sg26
(lp201
g57
ag57
ag57
asbasbas.