(dp0
S'b'
p1
(lp2
(iTFClasses
TF
p3
(dp4
S'SingleBinFunc'
p5
(iTFClasses
function
p6
(dp7
S'DG_rel_weight'
p8
F0.7
sS'par_values'
p9
(lp10
F1064.2997144522044
aF29.947071103483935
aF6.9168779586614715
aF3.6764813415857134e-08
aF16.916229642418678
asS'DG_mean'
p11
(lp12
S'[1]'
p13
aS'[3]'
p14
asS'par_errors'
p15
(lp16
F32.512301203798444
aF0.5206984053035537
aF0.2529688963827659
aF2.8069950928067966
aF0.5364248688440316
asS'par_limits'
p17
(lp18
(I1
F0.0
F2000.0
tp19
a(I2
F0.0
F2000.0
tp20
a(I3
F0.0
F2000.0
tp21
a(I4
F0.0
F2000.0
tp22
asS'Is_DG'
p23
I01
sS'str'
p24
S'[0]*(0.7*exp(-0.5*((x-([1]))/([2]))**2)+(1-0.7)*exp(-0.5*((x-([3]))/([2]+[4]))**2))'
p25
sS'par_initials'
p26
(lp27
S'0'
p28
aS'1.1*mean'
p29
aS'1.0*rms'
p30
aS'0.7*mean'
p31
aS'0.5*rms'
p32
asS'fitrange'
p33
(F30.1
F500.0
tp34
sS'DG_rms'
p35
(lp36
S'[2]'
p37
aS'[2]+[4]'
p38
asbsS'i_eta'
p39
I0
sS'particle'
p40
g1
sS'AcrossBinFuncs'
p41
(lp42
(iTFClasses
function
p43
(dp44
g15
(lp45
sg9
(lp46
sg17
(lp47
sg24
S'1'
p48
sg26
(lp49
sba(iTFClasses
function
p50
(dp51
g15
(lp52
F0.07133474670616802
aF0.0005917734904696281
asg9
(lp53
F-1.6419255571066733
aF0.9356199542214505
asg17
(lp54
sg24
S'[0]+[1]*x'
p55
sg26
(lp56
S'0'
p57
ag48
asba(iTFClasses
function
p58
(dp59
g15
(lp60
F0.3029104385747658
aF0.036868181721029666
aF0.002024611619065437
asg9
(lp61
F4.6178878781084824
aF0.6806661139616669
aF0.04964570911604015
asg17
(lp62
sg24
S'sqrt([0]*[0] + x*[1]*[1] + x*x*[2]*[2])'
p63
sg26
(lp64
g57
ag57
ag57
asba(iTFClasses
function
p65
(dp66
g15
(lp67
F0.14809106341031186
aF0.0011706346502895998
asg9
(lp68
F-0.3819629090397769
aF0.8277946109362225
asg17
(lp69
sg24
g55
sg26
(lp70
g57
ag48
asba(iTFClasses
function
p71
(dp72
g15
(lp73
F0.1081837071334957
aF0.6120227098491388
aF0.0006678274440986006
asg9
(lp74
F6.604388696711759
aF2.69969976673804e-07
aF0.06926924021380082
asg17
(lp75
sg24
g63
sg26
(lp76
g57
ag57
ag57
asbasba(iTFClasses
TF
p77
(dp78
g5
(iTFClasses
function
p79
(dp80
g8
F0.7
sg9
(lp81
F698.8049896515241
aF28.17721273967333
aF6.8082611875392995
aF4.453094559764281e-07
aF14.750844675196495
asg11
(lp82
g13
ag14
asg15
(lp83
F48.83294183898085
aF0.9787353205362734
aF0.4117339082165272
aF28.76637290328965
aF0.8274208056691101
asg17
(lp84
g19
ag20
ag21
ag22
asg23
I01
sg24
g25
sg26
(lp85
g28
ag29
ag30
ag31
ag32
asg33
g34
sg35
(lp86
g37
ag38
asbsg39
I1
sg40
g1
sg41
(lp87
(iTFClasses
function
p88
(dp89
g15
(lp90
sg9
(lp91
sg17
(lp92
sg24
g48
sg26
(lp93
sba(iTFClasses
function
p94
(dp95
g15
(lp96
F0.11510123340670148
aF0.0009651875443184762
asg9
(lp97
F-3.102900588946258
aF0.8948316617295433
asg17
(lp98
sg24
g55
sg26
(lp99
g57
ag48
asba(iTFClasses
function
p100
(dp101
g15
(lp102
F0.4691126042249741
aF0.054359072548548736
aF0.003251925522607359
asg9
(lp103
F4.810606855351031
aF0.753835184048705
aF0.05126894738276185
asg17
(lp104
sg24
g63
sg26
(lp105
g57
ag57
ag57
asba(iTFClasses
function
p106
(dp107
g15
(lp108
F0.2470061779105035
aF0.0019654332543804272
asg9
(lp109
F-0.6784998613263351
aF0.7874680608857612
asg17
(lp110
sg24
g55
sg26
(lp111
g57
ag48
asba(iTFClasses
function
p112
(dp113
g15
(lp114
F1.0881283906551171
aF0.27534425710318206
aF0.005290740161526086
asg9
(lp115
F4.5217709801668935
aF0.30108526332330354
aF0.06147519053290841
asg17
(lp116
sg24
g63
sg26
(lp117
g57
ag57
ag57
asbasbasS'l'
p118
(lp119
(iTFClasses
TF
p120
(dp121
g5
(iTFClasses
function
p122
(dp123
g8
F0.7
sg9
(lp124
F2740.9259167519554
aF28.813868343373407
aF6.382748509208835
aF11.367783834177025
aF11.713601252690498
asg11
(lp125
g13
ag14
asg15
(lp126
F192.86472411255127
aF0.6344497942608047
aF0.40448564806161436
aF6.4641557922833215
aF2.1283450928953345
asg17
(lp127
g19
ag20
ag21
ag22
asg23
I01
sg24
g25
sg26
(lp128
g28
ag29
ag30
ag31
ag32
asg33
g34
sg35
(lp129
g37
ag38
asbsg39
I0
sg40
g118
sg41
(lp130
(iTFClasses
function
p131
(dp132
g15
(lp133
sg9
(lp134
sg17
(lp135
sg24
g48
sg26
(lp136
sba(iTFClasses
function
p137
(dp138
g15
(lp139
F0.05052286197994909
aF0.0004832705050975855
asg9
(lp140
F0.025734808891964802
aF0.9456638095324236
asg17
(lp141
sg24
g55
sg26
(lp142
g57
ag48
asba(iTFClasses
function
p143
(dp144
g15
(lp145
F0.39868020469181475
aF0.021954302467923358
aF0.0017104908819532386
asg9
(lp146
F2.1923115785422325
aF0.8046967306982405
aF0.045973570592048624
asg17
(lp147
sg24
g63
sg26
(lp148
g57
ag57
ag57
asba(iTFClasses
function
p149
(dp150
g15
(lp151
F0.09819829370142825
aF0.0008842180836522591
asg9
(lp152
F3.2236261351657447
aF0.8666207109790902
asg17
(lp153
sg24
g55
sg26
(lp154
g57
ag48
asba(iTFClasses
function
p155
(dp156
g15
(lp157
F0.3290501941363585
aF0.06034130437719777
aF0.0034804236499877245
asg9
(lp158
F6.296801150222548
aF0.6161311761629048
aF0.04376153106822926
asg17
(lp159
sg24
g63
sg26
(lp160
g57
ag57
ag57
asbasba(iTFClasses
TF
p161
(dp162
g5
(iTFClasses
function
p163
(dp164
g8
F0.7
sg9
(lp165
F890.9623184387319
aF31.230870670632015
aF4.685431893165948
aF13.564127542415317
aF12.612372035512575
asg11
(lp166
g13
ag14
asg15
(lp167
F40.13047500984126
aF0.32457831148974314
aF0.306363773987961
aF6.2152070341000005
aF2.396382908383787
asg17
(lp168
g19
ag20
ag21
ag22
asg23
I01
sg24
g25
sg26
(lp169
g28
ag29
ag30
ag31
ag32
asg33
g34
sg35
(lp170
g37
ag38
asbsg39
I1
sg40
g118
sg41
(lp171
(iTFClasses
function
p172
(dp173
g15
(lp174
sg9
(lp175
sg17
(lp176
sg24
g48
sg26
(lp177
sba(iTFClasses
function
p178
(dp179
g15
(lp180
F0.07751507277745374
aF0.0007495802275294573
asg9
(lp181
F-0.9241457672186943
aF0.9142413793633763
asg17
(lp182
sg24
g55
sg26
(lp183
g57
ag48
asba(iTFClasses
function
p184
(dp185
g15
(lp186
F1.5943939383997345
aF0.02922925470431029
aF0.0031278524692154954
asg9
(lp187
F0.8201421638599905
aF0.9344115996242015
aF0.039920463837017334
asg17
(lp188
sg24
g63
sg26
(lp189
g57
ag57
ag57
asba(iTFClasses
function
p190
(dp191
g15
(lp192
F0.16218222648040354
aF0.0014481607299626981
asg9
(lp193
F2.737914763572812
aF0.8280237942935629
asg17
(lp194
sg24
g55
sg26
(lp195
g57
ag48
asba(iTFClasses
function
p196
(dp197
g15
(lp198
F0.09992966262618229
aF0.5351906014763685
aF0.0009640382364163496
asg9
(lp199
F6.868866628955399
aF2.7125098138143644e-06
aF0.0554236400170853
asg17
(lp200
sg24
g63
sg26
(lp201
g57
ag57
ag57
asbasbas.