(dp0
S'b'
p1
(lp2
(iTFClasses
TF
p3
(dp4
S'SingleBinFunc'
p5
(iTFClasses
function
p6
(dp7
S'DG_rel_weight'
p8
F0.7
sS'par_values'
p9
(lp10
F33169.13588969309
aF27.511740420362973
aF7.374325374040813
aF1999.9999999901652
aF784.380868537921
asS'DG_mean'
p11
(lp12
S'[1]'
p13
aS'[3]'
p14
asS'par_errors'
p15
(lp16
F303.68950463714157
aF0.13792404826895677
aF0.06133495360244323
aF32.42514518192138
aF2.4168317691411403
asS'par_limits'
p17
(lp18
(I1
F0.0
F2000.0
tp19
a(I2
F0.0
F2000.0
tp20
a(I3
F0.0
F2000.0
tp21
a(I4
F0.0
F2000.0
tp22
asS'Is_DG'
p23
I01
sS'str'
p24
S'[0]*(0.7*exp(-0.5*((x-([1]))/([2]))**2)+(1-0.7)*exp(-0.5*((x-([3]))/([2]+[4]))**2))'
p25
sS'par_initials'
p26
(lp27
S'0'
p28
aS'1.1*mean'
p29
aS'1.0*rms'
p30
aS'0.7*mean'
p31
aS'0.5*rms'
p32
asS'fitrange'
p33
(F30.1
F500.0
tp34
sS'DG_rms'
p35
(lp36
S'[2]'
p37
aS'[2]+[4]'
p38
asbsS'i_eta'
p39
I0
sS'particle'
p40
g1
sS'AcrossBinFuncs'
p41
(lp42
(iTFClasses
function
p43
(dp44
g15
(lp45
sg9
(lp46
sg17
(lp47
sg24
S'1'
p48
sg26
(lp49
sba(iTFClasses
function
p50
(dp51
g15
(lp52
F0.017955073659113113
aF0.00020062244160244487
asg9
(lp53
F-4.5657250033251415
aF0.9941392807307562
asg17
(lp54
sg24
S'[0]+[1]*x'
p55
sg26
(lp56
S'0'
p57
ag48
asba(iTFClasses
function
p58
(dp59
g15
(lp60
F0.0801154735906867
aF0.0017684279961034028
aF0.0003495342158571808
asg9
(lp61
F-1.0868169705198205e-07
aF0.9792155446612273
aF0.05131285824918237
asg17
(lp62
sg24
S'sqrt([0]*[0] + x*[1]*[1] + x*x*[2]*[2])'
p63
sg26
(lp64
g57
ag57
ag57
asba(iTFClasses
function
p65
(dp66
g15
(lp67
F0.041049012684692604
aF0.000410434368878473
asg9
(lp68
F-8.828161494228375
aF0.940009883810125
asg17
(lp69
sg24
g55
sg26
(lp70
g57
ag48
asba(iTFClasses
function
p71
(dp72
g15
(lp73
F0.05529738170017881
aF0.01644543352302174
aF0.00019057395469178527
asg9
(lp74
F3.2314619376611713
aF7.58801677469865e-09
aF0.10913727769377983
asg17
(lp75
sg24
g63
sg26
(lp76
g57
ag57
ag57
asbasba(iTFClasses
TF
p77
(dp78
g5
(iTFClasses
function
p79
(dp80
g8
F0.7
sg9
(lp81
F18976.636500674995
aF31.417874138245704
aF4.810093472329968
aF21.44053816860636
aF10.10961376553765
asg11
(lp82
g13
ag14
asg15
(lp83
F149.5138269428485
aF0.06644012083456552
aF0.0721997741167657
aF0.9183091030630628
aF0.3558640285696306
asg17
(lp84
g19
ag20
ag21
ag22
asg23
I01
sg24
g25
sg26
(lp85
g28
ag29
ag30
ag31
ag32
asg33
g34
sg35
(lp86
g37
ag38
asbsg39
I1
sg40
g1
sg41
(lp87
(iTFClasses
function
p88
(dp89
g15
(lp90
sg9
(lp91
sg17
(lp92
sg24
g48
sg26
(lp93
sba(iTFClasses
function
p94
(dp95
g15
(lp96
F0.025944614592471184
aF0.00027864757361667166
asg9
(lp97
F-4.743172253952432
aF0.9698847077458407
asg17
(lp98
sg24
g55
sg26
(lp99
g57
ag48
asba(iTFClasses
function
p100
(dp101
g15
(lp102
F0.13017993993622012
aF0.0024535067557201673
aF0.0005999974268356932
asg9
(lp103
F1.4557967424956976e-06
aF1.1664075489047467
aF0.048797082831994534
asg17
(lp104
sg24
g63
sg26
(lp105
g57
ag57
ag57
asba(iTFClasses
function
p106
(dp107
g15
(lp108
F0.06532805915524297
aF0.0006314250101322371
asg9
(lp109
F-9.103031028894984
aF0.9106288811273485
asg17
(lp110
sg24
g55
sg26
(lp111
g57
ag48
asba(iTFClasses
function
p112
(dp113
g15
(lp114
F0.25384505178632494
aF0.019445056546426066
aF0.00016469794516927339
asg9
(lp115
F-4.805031765321992e-09
aF-8.011509694902176e-11
aF0.10250062238501756
asg17
(lp116
sg24
g63
sg26
(lp117
g57
ag57
ag57
asbasbasS'l'
p118
(lp119
(iTFClasses
TF
p120
(dp121
g5
(iTFClasses
function
p122
(dp123
g8
F0.7
sg9
(lp124
F559257.3125184707
aF5.92437210400476e-09
aF15.586357145064845
aF949.9078216763188
aF3.7845138906212883
asg11
(lp125
g13
ag14
asg15
(lp126
F715.2299655806454
aF0.02382374110443397
aF0.0035263956338908997
aF479.4073282907747
aF1377.5037561073982
asg17
(lp127
g19
ag20
ag21
ag22
asg23
I01
sg24
g25
sg26
(lp128
g28
ag29
ag30
ag31
ag32
asg33
g34
sg35
(lp129
g37
ag38
asbsg39
I0
sg40
g118
sg41
(lp130
(iTFClasses
function
p131
(dp132
g15
(lp133
sg9
(lp134
sg17
(lp135
sg24
g48
sg26
(lp136
sba(iTFClasses
function
p137
(dp138
g15
(lp139
F0.014146204049187172
aF0.00018335763758795619
asg9
(lp140
F-2.166188452578878
aF0.999336058697057
asg17
(lp141
sg24
g55
sg26
(lp142
g57
ag48
asba(iTFClasses
function
p143
(dp144
g15
(lp145
F0.39215775998149294
aF0.001474559536047434
aF0.0002656094127738786
asg9
(lp146
F-6.487027400780327e-06
aF0.877955256882217
aF0.05809568035657825
asg17
(lp147
sg24
g63
sg26
(lp148
g57
ag57
ag57
asba(iTFClasses
function
p149
(dp150
g15
(lp151
F0.033223350984829536
aF0.0003716657742769947
asg9
(lp152
F-6.30909979878976
aF0.9870037821810401
asg17
(lp153
sg24
g55
sg26
(lp154
g57
ag48
asba(iTFClasses
function
p155
(dp156
g15
(lp157
F0.11203174786319765
aF0.056816383420000977
aF0.0010360835743420589
asg9
(lp158
F6.1410696489265755
aF0.2702284194896056
aF0.07700863172039606
asg17
(lp159
sg24
g63
sg26
(lp160
g57
ag57
ag57
asbasba(iTFClasses
TF
p161
(dp162
g5
(iTFClasses
function
p163
(dp164
g8
F0.7
sg9
(lp165
F46821.98534301103
aF29.29648509165983
aF6.878970289767916
aF6.530077699053671
aF14.009164733611135
asg11
(lp166
g13
ag14
asg15
(lp167
F629.1977958054614
aF0.11548663778937396
aF0.07743469484283727
aF1.8199287185136637
aF0.6500836813983506
asg17
(lp168
g19
ag20
ag21
ag22
asg23
I01
sg24
g25
sg26
(lp169
g28
ag29
ag30
ag31
ag32
asg33
g34
sg35
(lp170
g37
ag38
asbsg39
I1
sg40
g118
sg41
(lp171
(iTFClasses
function
p172
(dp173
g15
(lp174
sg9
(lp175
sg17
(lp176
sg24
g48
sg26
(lp177
sba(iTFClasses
function
p178
(dp179
g15
(lp180
F0.020855891003134362
aF0.00026488292340355563
asg9
(lp181
F-1.8115693512135589
aF0.9865842803294607
asg17
(lp182
sg24
g55
sg26
(lp183
g57
ag48
asba(iTFClasses
function
p184
(dp185
g15
(lp186
F0.19341481281258777
aF0.0019397517692860745
aF0.00047780105586639606
asg9
(lp187
F-1.1512082003845616e-06
aF1.08200298623075
aF0.050075387061544484
asg17
(lp188
sg24
g63
sg26
(lp189
g57
ag57
ag57
asba(iTFClasses
function
p190
(dp191
g15
(lp192
F0.05086768663273431
aF0.000551474199723023
asg9
(lp193
F-6.2732761157993275
aF0.9631115411042184
asg17
(lp194
sg24
g55
sg26
(lp195
g57
ag48
asba(iTFClasses
function
p196
(dp197
g15
(lp198
F0.10081123525872034
aF0.041668653802022886
aF0.0006578057767261079
asg9
(lp199
F4.893860628126618
aF0.27897688890431827
aF0.08036395400097908
asg17
(lp200
sg24
g63
sg26
(lp201
g57
ag57
ag57
asbasbas.