(dp0
S'b'
p1
(lp2
(iTFClasses
TF
p3
(dp4
S'SingleBinFunc'
p5
(iTFClasses
function
p6
(dp7
S'DG_rel_weight'
p8
F0.7
sS'par_values'
p9
(lp10
F3248.1758014292636
aF31.854811136069806
aF4.34940272837625
aF17.317028228116648
aF13.847616347344992
asS'DG_mean'
p11
(lp12
S'[1]'
p13
aS'[3]'
p14
asS'par_errors'
p15
(lp16
F54.55526274469395
aF0.12217461357366588
aF0.13765301887325165
aF2.488757287959997
aF1.0933702817877977
asS'par_limits'
p17
(lp18
(I1
F0.0
F2000.0
tp19
a(I2
F0.0
F2000.0
tp20
a(I3
F0.0
F2000.0
tp21
a(I4
F0.0
F2000.0
tp22
asS'Is_DG'
p23
I01
sS'str'
p24
S'[0]*(0.7*exp(-0.5*((x-([1]))/([2]))**2)+(1-0.7)*exp(-0.5*((x-([3]))/([2]+[4]))**2))'
p25
sS'par_initials'
p26
(lp27
S'0'
p28
aS'1.1*mean'
p29
aS'1.0*rms'
p30
aS'0.7*mean'
p31
aS'0.5*rms'
p32
asS'fitrange'
p33
(F30.1
F500.0
tp34
sS'DG_rms'
p35
(lp36
S'[2]'
p37
aS'[2]+[4]'
p38
asbsS'i_eta'
p39
I0
sS'particle'
p40
g1
sS'AcrossBinFuncs'
p41
(lp42
(iTFClasses
function
p43
(dp44
g15
(lp45
sg9
(lp46
sg17
(lp47
sg24
S'1'
p48
sg26
(lp49
sba(iTFClasses
function
p50
(dp51
g15
(lp52
F0.045325432427436994
aF0.0004596613998226526
asg9
(lp53
F-4.895379358456147
aF1.0084991238620928
asg17
(lp54
sg24
S'[0]+[1]*x'
p55
sg26
(lp56
S'0'
p57
ag48
asba(iTFClasses
function
p58
(dp59
g15
(lp60
F0.3737958390058363
aF0.004433937182663275
aF0.0010101719935082633
asg9
(lp61
F-2.3156432994762434e-06
aF1.0668865602885909
aF0.041961279549771156
asg17
(lp62
sg24
S'sqrt([0]*[0] + x*[1]*[1] + x*x*[2]*[2])'
p63
sg26
(lp64
g57
ag57
ag57
asba(iTFClasses
function
p65
(dp66
g15
(lp67
F0.10568596437556575
aF0.0009446111238120093
asg9
(lp68
F-11.032848000757802
aF0.9788926183473132
asg17
(lp69
sg24
g55
sg26
(lp70
g57
ag48
asba(iTFClasses
function
p71
(dp72
g15
(lp73
F0.13520864822460843
aF0.04939457188805404
aF0.00045130110678068595
asg9
(lp74
F4.84431925055978
aF2.2986002044474602e-11
aF0.1346680316895902
asg17
(lp75
sg24
g63
sg26
(lp76
g57
ag57
ag57
asbasba(iTFClasses
TF
p77
(dp78
g5
(iTFClasses
function
p79
(dp80
g8
F0.7
sg9
(lp81
F2788.4063917760254
aF31.501049768413946
aF5.251216452486829
aF17.091944464199706
aF12.738272918884853
asg11
(lp82
g13
ag14
asg15
(lp83
F56.92338872580631
aF0.17772690921974466
aF0.17341655598934747
aF2.8051322018962104
aF1.151561998114559
asg17
(lp84
g19
ag20
ag21
ag22
asg23
I01
sg24
g25
sg26
(lp85
g28
ag29
ag30
ag31
ag32
asg33
g34
sg35
(lp86
g37
ag38
asbsg39
I1
sg40
g1
sg41
(lp87
(iTFClasses
function
p88
(dp89
g15
(lp90
sg9
(lp91
sg17
(lp92
sg24
g48
sg26
(lp93
sba(iTFClasses
function
p94
(dp95
g15
(lp96
F0.06621227931235363
aF0.0006893740806756622
asg9
(lp97
F-5.010769810707767
aF0.9997032130202473
asg17
(lp98
sg24
g55
sg26
(lp99
g57
ag48
asba(iTFClasses
function
p100
(dp101
g15
(lp102
F0.2776867905215783
aF0.006129583089736824
aF0.0013439695477529138
asg9
(lp103
F3.050154536715966e-08
aF1.1808125850537312
aF0.05184885763779792
asg17
(lp104
sg24
g63
sg26
(lp105
g57
ag57
ag57
asba(iTFClasses
function
p106
(dp107
g15
(lp108
F0.16453624651174129
aF0.001465290854990342
asg9
(lp109
F-10.329177261423915
aF0.9582070886796786
asg17
(lp110
sg24
g55
sg26
(lp111
g57
ag48
asba(iTFClasses
function
p112
(dp113
g15
(lp114
F0.2648571103554522
aF0.07693740965144401
aF0.0006646455830719264
asg9
(lp115
F3.4472753372618845
aF1.3819839567251855e-06
aF0.12920930396150535
asg17
(lp116
sg24
g63
sg26
(lp117
g57
ag57
ag57
asbasbasS'l'
p118
(lp119
(iTFClasses
TF
p120
(dp121
g5
(iTFClasses
function
p122
(dp123
g8
F0.7
sg9
(lp124
F3973.5530977216586
aF29.716331894300787
aF6.057040433951499
aF12.06027489154593
aF13.952331191494638
asg11
(lp125
g13
ag14
asg15
(lp126
F112.30527255250944
aF0.30811059079482916
aF0.203528849005985
aF2.949452055844848
aF1.112782432895143
asg17
(lp127
g19
ag20
ag21
ag22
asg23
I01
sg24
g25
sg26
(lp128
g28
ag29
ag30
ag31
ag32
asg33
g34
sg35
(lp129
g37
ag38
asbsg39
I0
sg40
g118
sg41
(lp130
(iTFClasses
function
p131
(dp132
g15
(lp133
sg9
(lp134
sg17
(lp135
sg24
g48
sg26
(lp136
sba(iTFClasses
function
p137
(dp138
g15
(lp139
F0.033372673028776986
aF0.0004235584883444883
asg9
(lp140
F-2.485662185031497
aF1.031559927941649
asg17
(lp141
sg24
g55
sg26
(lp142
g57
ag48
asba(iTFClasses
function
p143
(dp144
g15
(lp145
F0.5217994438618815
aF0.004974124147040272
aF0.0008418786119866669
asg9
(lp146
F9.560783883327975e-07
aF0.8826268053928654
aF0.05434366082111656
asg17
(lp147
sg24
g63
sg26
(lp148
g57
ag57
ag57
asba(iTFClasses
function
p149
(dp150
g15
(lp151
F0.10158485098252511
aF0.0010621815968927478
asg9
(lp152
F-7.58699043827677
aF1.0519417079289768
asg17
(lp153
sg24
g55
sg26
(lp154
g57
ag48
asba(iTFClasses
function
p155
(dp156
g15
(lp157
F0.6644470842776523
aF0.04975533331261393
aF0.0035728708553971534
asg9
(lp158
F3.554257731691344
aF0.9973549250154761
aF0.06625633869997977
asg17
(lp159
sg24
g63
sg26
(lp160
g57
ag57
ag57
asbasba(iTFClasses
TF
p161
(dp162
g5
(iTFClasses
function
p163
(dp164
g8
F0.7
sg9
(lp165
F2815.788443100732
aF30.64208608163488
aF6.786287750447428
aF8.10213430965312
aF15.385095195684983
asg11
(lp166
g13
ag14
asg15
(lp167
F113.31032739957112
aF0.3355319185904264
aF0.2651745165588304
aF6.512312407611464
aF2.5363676398759694
asg17
(lp168
g19
ag20
ag21
ag22
asg23
I01
sg24
g25
sg26
(lp169
g28
ag29
ag30
ag31
ag32
asg33
g34
sg35
(lp170
g37
ag38
asbsg39
I1
sg40
g118
sg41
(lp171
(iTFClasses
function
p172
(dp173
g15
(lp174
sg9
(lp175
sg17
(lp176
sg24
g48
sg26
(lp177
sba(iTFClasses
function
p178
(dp179
g15
(lp180
F0.07074465385006318
aF0.0008314933190487493
asg9
(lp181
F-2.2419092515727175
aF1.0330696408954108
asg17
(lp182
sg24
g55
sg26
(lp183
g57
ag48
asba(iTFClasses
function
p184
(dp185
g15
(lp186
F1.1982754025351334
aF0.00647842257605414
aF0.0015528679112070916
asg9
(lp187
F-9.325741218248913e-07
aF1.0824417486966424
aF0.047716105016922854
asg17
(lp188
sg24
g63
sg26
(lp189
g57
ag57
ag57
asba(iTFClasses
function
p190
(dp191
g15
(lp192
F0.1612724169805294
aF0.001647742734354077
asg9
(lp193
F-7.465472526704284
aF1.0396400628950424
asg17
(lp194
sg24
g55
sg26
(lp195
g57
ag48
asba(iTFClasses
function
p196
(dp197
g15
(lp198
F0.7665735407778108
aF0.1054591020618543
aF0.00444501886755657
asg9
(lp199
F4.930756522777909
aF0.7464110683625318
aF0.0851320321625954
asg17
(lp200
sg24
g63
sg26
(lp201
g57
ag57
ag57
asbasbas.