(dp0
S'b'
p1
(lp2
(iTFClasses
TF
p3
(dp4
S'SingleBinFunc'
p5
(iTFClasses
function
p6
(dp7
S'DG_rel_weight'
p8
F0.7
sS'par_values'
p9
(lp10
F16481.610580288063
aF26.984670954878776
aF6.673921472734934
aF5.563660643304047e-09
aF17.492781038336513
asS'DG_mean'
p11
(lp12
S'[1]'
p13
aS'[3]'
p14
asS'par_errors'
p15
(lp16
F291.8580579281764
aF0.2240109171146596
aF0.0841761100111027
aF0.36545929620734885
aF0.18943071456622995
asS'par_limits'
p17
(lp18
(I1
F0.0
F2000.0
tp19
a(I2
F0.0
F2000.0
tp20
a(I3
F0.0
F2000.0
tp21
a(I4
F0.0
F2000.0
tp22
asS'Is_DG'
p23
I01
sS'str'
p24
S'[0]*(0.7*exp(-0.5*((x-([1]))/([2]))**2)+(1-0.7)*exp(-0.5*((x-([3]))/([2]+[4]))**2))'
p25
sS'par_initials'
p26
(lp27
S'0'
p28
aS'1.1*mean'
p29
aS'1.0*rms'
p30
aS'0.7*mean'
p31
aS'0.5*rms'
p32
asS'fitrange'
p33
(F30.1
F500.0
tp34
sS'DG_rms'
p35
(lp36
S'[2]'
p37
aS'[2]+[4]'
p38
asbsS'i_eta'
p39
I0
sS'particle'
p40
g1
sS'AcrossBinFuncs'
p41
(lp42
(iTFClasses
function
p43
(dp44
g15
(lp45
sg9
(lp46
sg17
(lp47
sg24
S'1'
p48
sg26
(lp49
sba(iTFClasses
function
p50
(dp51
g15
(lp52
F0.02368085066532421
aF0.0002461352860624686
asg9
(lp53
F-6.438016525150067
aF1.0500393825349612
asg17
(lp54
sg24
S'[0]+[1]*x'
p55
sg26
(lp56
S'0'
p57
ag48
asba(iTFClasses
function
p58
(dp59
g15
(lp60
F0.4034673749814333
aF0.010925083555479099
aF0.002142267182219016
asg9
(lp61
F1.5387919879285221
aF1.1617299480166505
aF0.027216875658756724
asg17
(lp62
sg24
S'sqrt([0]*[0] + x*[1]*[1] + x*x*[2]*[2])'
p63
sg26
(lp64
g57
ag57
ag57
asba(iTFClasses
function
p65
(dp66
g15
(lp67
F0.05024240750828185
aF0.000480434903479584
asg9
(lp68
F-11.090267676739755
aF0.9910520927323961
asg17
(lp69
sg24
g55
sg26
(lp70
g57
ag48
asba(iTFClasses
function
p71
(dp72
g15
(lp73
F0.3272063424810388
aF0.019855028524094008
aF0.00013597288496194448
asg9
(lp74
F1.4108383798002147e-12
aF-5.161852321604107e-13
aF0.12395483341007567
asg17
(lp75
sg24
g63
sg26
(lp76
g57
ag57
ag57
asbasba(iTFClasses
TF
p77
(dp78
g5
(iTFClasses
function
p79
(dp80
g8
F0.7
sg9
(lp81
F7822.313691882741
aF31.56324454957693
aF4.991991046698119
aF18.68983565305504
aF12.211345429505304
asg11
(lp82
g13
ag14
asg15
(lp83
F64.13666733231874
aF0.08636953860546903
aF0.07735831089833445
aF0.9912860509175285
aF0.4176630486924511
asg17
(lp84
g19
ag20
ag21
ag22
asg23
I01
sg24
g25
sg26
(lp85
g28
ag29
ag30
ag31
ag32
asg33
g34
sg35
(lp86
g37
ag38
asbsg39
I1
sg40
g1
sg41
(lp87
(iTFClasses
function
p88
(dp89
g15
(lp90
sg9
(lp91
sg17
(lp92
sg24
g48
sg26
(lp93
sba(iTFClasses
function
p94
(dp95
g15
(lp96
F0.03733820737094695
aF0.00038349224070202963
asg9
(lp97
F-6.489924008264591
aF1.0239655750574095
asg17
(lp98
sg24
g55
sg26
(lp99
g57
ag48
asba(iTFClasses
function
p100
(dp101
g15
(lp102
F0.35691044248303955
aF0.01753322805770032
aF0.00240929913120894
asg9
(lp103
F3.0806265412896123
aF1.2719494466885706
aF0.04317896548922143
asg17
(lp104
sg24
g63
sg26
(lp105
g57
ag57
ag57
asba(iTFClasses
function
p106
(dp107
g15
(lp108
F0.07870677067559513
aF0.0007476802250849571
asg9
(lp109
F-12.042219970584888
aF0.9715436674285173
asg17
(lp110
sg24
g55
sg26
(lp111
g57
ag48
asba(iTFClasses
function
p112
(dp113
g15
(lp114
F0.18364823074346276
aF0.018104662144206016
aF0.00022654466502814336
asg9
(lp115
F1.8548651905550476e-12
aF7.780236153898981e-13
aF0.11410682766036137
asg17
(lp116
sg24
g63
sg26
(lp117
g57
ag57
ag57
asbasbasS'l'
p118
(lp119
(iTFClasses
TF
p120
(dp121
g5
(iTFClasses
function
p122
(dp123
g8
F0.7
sg9
(lp124
F20302.298602163097
aF30.55762225337744
aF5.5352923650067165
aF17.379411695949365
aF12.462991207967121
asg11
(lp125
g13
ag14
asg15
(lp126
F176.46648942986496
aF0.09522923854898835
aF0.07660912569568135
aF0.9618741766505554
aF0.3785538160710473
asg17
(lp127
g19
ag20
ag21
ag22
asg23
I01
sg24
g25
sg26
(lp128
g28
ag29
ag30
ag31
ag32
asg33
g34
sg35
(lp129
g37
ag38
asbsg39
I0
sg40
g118
sg41
(lp130
(iTFClasses
function
p131
(dp132
g15
(lp133
sg9
(lp134
sg17
(lp135
sg24
g48
sg26
(lp136
sba(iTFClasses
function
p137
(dp138
g15
(lp139
F0.012790364841794081
aF0.00018115827171706126
asg9
(lp140
F-3.3297117838714145
aF1.0607894283520922
asg17
(lp141
sg24
g55
sg26
(lp142
g57
ag48
asba(iTFClasses
function
p143
(dp144
g15
(lp145
F0.11732959222477224
aF0.008252889905716996
aF0.0007352558909483257
asg9
(lp146
F2.5703975440498614
aF0.9133430163458105
aF0.05712095585955735
asg17
(lp147
sg24
g63
sg26
(lp148
g57
ag57
ag57
asba(iTFClasses
function
p149
(dp150
g15
(lp151
F0.03956793096160565
aF0.00043098737573613684
asg9
(lp152
F-8.642313130879897
aF1.058519547467308
asg17
(lp153
sg24
g55
sg26
(lp154
g57
ag48
asba(iTFClasses
function
p155
(dp156
g15
(lp157
F0.19216230062629353
aF0.028440291473894777
aF0.0012705666361584509
asg9
(lp158
F4.994430828735741
aF0.7267481623529527
aF0.08125529700958666
asg17
(lp159
sg24
g63
sg26
(lp160
g57
ag57
ag57
asbasba(iTFClasses
TF
p161
(dp162
g5
(iTFClasses
function
p163
(dp164
g8
F0.7
sg9
(lp165
F15085.002049478559
aF31.489703890825727
aF6.0116719251877
aF19.539797794799753
aF11.415243808643671
asg11
(lp166
g13
ag14
asg15
(lp167
F133.57280120771742
aF0.08292034169077311
aF0.07795447792136034
aF1.1593931359503706
aF0.46711176277430866
asg17
(lp168
g19
ag20
ag21
ag22
asg23
I01
sg24
g25
sg26
(lp169
g28
ag29
ag30
ag31
ag32
asg33
g34
sg35
(lp170
g37
ag38
asbsg39
I1
sg40
g118
sg41
(lp171
(iTFClasses
function
p172
(dp173
g15
(lp174
sg9
(lp175
sg17
(lp176
sg24
g48
sg26
(lp177
sba(iTFClasses
function
p178
(dp179
g15
(lp180
F0.027372453276578536
aF0.0003297912083348461
asg9
(lp181
F-2.8700261490469283
aF1.0465113407599742
asg17
(lp182
sg24
g55
sg26
(lp183
g57
ag48
asba(iTFClasses
function
p184
(dp185
g15
(lp186
F1.6029560008044963
aF0.014494548395700356
aF0.0021391715797509183
asg9
(lp187
F0.44213585267303485
aF1.205535937638853
aF0.04393218746173112
asg17
(lp188
sg24
g63
sg26
(lp189
g57
ag57
ag57
asba(iTFClasses
function
p190
(dp191
g15
(lp192
F0.06202161329570254
aF0.0006582990744213977
asg9
(lp193
F-8.926902580131568
aF1.0423467715044783
asg17
(lp194
sg24
g55
sg26
(lp195
g57
ag48
asba(iTFClasses
function
p196
(dp197
g15
(lp198
F0.28449302718474817
aF0.06962653141553878
aF0.0017213214017002933
asg9
(lp199
F5.214599430031593
aF0.45955901307278985
aF0.09412951856557351
asg17
(lp200
sg24
g63
sg26
(lp201
g57
ag57
ag57
asbasbas.