(dp0
S'b'
p1
(lp2
(iTFClasses
TF
p3
(dp4
S'SingleBinFunc'
p5
(iTFClasses
function
p6
(dp7
S'DG_rel_weight'
p8
F0.7
sS'par_values'
p9
(lp10
F387.834057015412
aF30.695827749138928
aF6.119568360355099
aF1.8041124150158794e-09
aF20.1201761384201
asS'DG_mean'
p11
(lp12
S'[1]'
p13
aS'[3]'
p14
asS'par_errors'
p15
(lp16
F15.62524921685599
aF0.6513307272506541
aF0.3371769118618584
aF1.852279774895771
aF0.7569548540802824
asS'par_limits'
p17
(lp18
(I1
F0.0
F2000.0
tp19
a(I2
F0.0
F2000.0
tp20
a(I3
F0.0
F2000.0
tp21
a(I4
F0.0
F2000.0
tp22
asS'Is_DG'
p23
I01
sS'str'
p24
S'[0]*(0.7*exp(-0.5*((x-([1]))/([2]))**2)+(1-0.7)*exp(-0.5*((x-([3]))/([2]+[4]))**2))'
p25
sS'par_initials'
p26
(lp27
S'0'
p28
aS'1.1*mean'
p29
aS'1.0*rms'
p30
aS'0.7*mean'
p31
aS'0.5*rms'
p32
asS'fitrange'
p33
(F30.1
F500.0
tp34
sS'DG_rms'
p35
(lp36
S'[2]'
p37
aS'[2]+[4]'
p38
asbsS'i_eta'
p39
I0
sS'particle'
p40
g1
sS'AcrossBinFuncs'
p41
(lp42
(iTFClasses
function
p43
(dp44
g15
(lp45
sg9
(lp46
sg17
(lp47
sg24
S'1'
p48
sg26
(lp49
sba(iTFClasses
function
p50
(dp51
g15
(lp52
F0.14059750565302628
aF0.0011072640064933943
asg9
(lp53
F-2.5928365608103574
aF0.9227462547841407
asg17
(lp54
sg24
S'[0]+[1]*x'
p55
sg26
(lp56
S'0'
p57
ag48
asba(iTFClasses
function
p58
(dp59
g15
(lp60
F1.0767941676008508
aF0.07229714285166697
aF0.0042843541843895945
asg9
(lp61
F3.2957511381787006
aF0.8218743377636768
aF0.051971881787525674
asg17
(lp62
sg24
S'sqrt([0]*[0] + x*[1]*[1] + x*x*[2]*[2])'
p63
sg26
(lp64
g57
ag57
ag57
asba(iTFClasses
function
p65
(dp66
g15
(lp67
F0.3114029602087784
aF0.0024079546316591693
asg9
(lp68
F4.131894823198942
aF0.745360176678397
asg17
(lp69
sg24
g55
sg26
(lp70
g57
ag48
asba(iTFClasses
function
p71
(dp72
g15
(lp73
F0.2473822931103904
aF0.1484811125014516
aF0.0012625993044464792
asg9
(lp74
F7.547928220822376
aF-4.7187284264040904e-08
aF0.09250536512795667
asg17
(lp75
sg24
g63
sg26
(lp76
g57
ag57
ag57
asbasba(iTFClasses
TF
p77
(dp78
g5
(iTFClasses
function
p79
(dp80
g8
F0.7
sg9
(lp81
F201.87048731474232
aF29.55881208626232
aF6.086086095577481
aF1.2949641359227826e-09
aF18.232880769171178
asg11
(lp82
g13
ag14
asg15
(lp83
F18.04411546557375
aF1.2746031635035298
aF0.5715683538567995
aF6.0479412241550845
aF1.246504650563251
asg17
(lp84
g19
ag20
ag21
ag22
asg23
I01
sg24
g25
sg26
(lp85
g28
ag29
ag30
ag31
ag32
asg33
g34
sg35
(lp86
g37
ag38
asbsg39
I1
sg40
g1
sg41
(lp87
(iTFClasses
function
p88
(dp89
g15
(lp90
sg9
(lp91
sg17
(lp92
sg24
g48
sg26
(lp93
sba(iTFClasses
function
p94
(dp95
g15
(lp96
F0.23645493761688618
aF0.0019366967066274236
asg9
(lp97
F-2.818950509965121
aF0.8681111544933325
asg17
(lp98
sg24
g55
sg26
(lp99
g57
ag48
asba(iTFClasses
function
p100
(dp101
g15
(lp102
F1.0935859602059808
aF0.17324831005214592
aF0.0057393687870314755
asg9
(lp103
F5.776896436993977
aF0.6191590194618939
aF-0.0716603521084492
asg17
(lp104
sg24
g63
sg26
(lp105
g57
ag57
ag57
asba(iTFClasses
function
p106
(dp107
g15
(lp108
F0.4859654132759125
aF0.0034110295141273716
asg9
(lp109
F2.3248965736287994
aF0.7099991685613398
asg17
(lp110
sg24
g55
sg26
(lp111
g57
ag48
asba(iTFClasses
function
p112
(dp113
g15
(lp114
F0.4521324186144374
aF0.2581915729935038
aF0.0025504115554326624
asg9
(lp115
F6.7632260750407625
aF-1.9485679508466063e-08
aF0.07842577325762033
asg17
(lp116
sg24
g63
sg26
(lp117
g57
ag57
ag57
asbasbasS'l'
p118
(lp119
(iTFClasses
TF
p120
(dp121
g5
(iTFClasses
function
p122
(dp123
g8
F0.7
sg9
(lp124
F515.0725244060832
aF24.51920810488506
aF7.606340365948427
aF2.065945192697427e-07
aF14.193007693152238
asg11
(lp125
g13
ag14
asg15
(lp126
F92.12998792649537
aF2.180634645358282
aF0.7132545764472753
aF13.66833382242727
aF1.4824712483564877
asg17
(lp127
g19
ag20
ag21
ag22
asg23
I01
sg24
g25
sg26
(lp128
g28
ag29
ag30
ag31
ag32
asg33
g34
sg35
(lp129
g37
ag38
asbsg39
I0
sg40
g118
sg41
(lp130
(iTFClasses
function
p131
(dp132
g15
(lp133
sg9
(lp134
sg17
(lp135
sg24
g48
sg26
(lp136
sba(iTFClasses
function
p137
(dp138
g15
(lp139
F0.12368070165012383
aF0.0011418476322315252
asg9
(lp140
F-0.9247137674393211
aF0.946418419983838
asg17
(lp141
sg24
g55
sg26
(lp142
g57
ag48
asba(iTFClasses
function
p143
(dp144
g15
(lp145
F2.0800261344414412
aF0.012458926988581018
aF0.001975712732608609
asg9
(lp146
F5.603282013595094e-06
aF0.8560706106814399
aF0.0426282070190244
asg17
(lp147
sg24
g63
sg26
(lp148
g57
ag57
ag57
asba(iTFClasses
function
p149
(dp150
g15
(lp151
F0.2562622088558033
aF0.0022293615151941218
asg9
(lp152
F2.3350874103721337
aF0.8493622447468154
asg17
(lp153
sg24
g55
sg26
(lp154
g57
ag48
asba(iTFClasses
function
p155
(dp156
g15
(lp157
F0.8397076433904139
aF0.6195777965522627
aF0.006670475121245948
asg9
(lp158
F8.32909485250372
aF0.19961029501389976
aF0.07464679816797694
asg17
(lp159
sg24
g63
sg26
(lp160
g57
ag57
ag57
asbasba(iTFClasses
TF
p161
(dp162
g5
(iTFClasses
function
p163
(dp164
g8
F0.7
sg9
(lp165
F297.88236352502395
aF24.574402602747124
aF7.207457065531941
aF1.0413891970983968e-09
aF12.532341464998598
asg11
(lp166
g13
ag14
asg15
(lp167
F77.25667832585955
aF2.845280257870618
aF0.9296543925066403
aF8.273594806132822
aF1.909790885336771
asg17
(lp168
g19
ag20
ag21
ag22
asg23
I01
sg24
g25
sg26
(lp169
g28
ag29
ag30
ag31
ag32
asg33
g34
sg35
(lp170
g37
ag38
asbsg39
I1
sg40
g118
sg41
(lp171
(iTFClasses
function
p172
(dp173
g15
(lp174
sg9
(lp175
sg17
(lp176
sg24
g48
sg26
(lp177
sba(iTFClasses
function
p178
(dp179
g15
(lp180
F0.20785672356737422
aF0.001971102918211564
asg9
(lp181
F-1.4217580509358045
aF0.903941195110368
asg17
(lp182
sg24
g55
sg26
(lp183
g57
ag48
asba(iTFClasses
function
p184
(dp185
g15
(lp186
F1.7055945742697571
aF0.01885617305826114
aF0.0029417459087152883
asg9
(lp187
F9.26035999318758e-09
aF0.9249213677527998
aF0.04852576860945208
asg17
(lp188
sg24
g63
sg26
(lp189
g57
ag57
ag57
asba(iTFClasses
function
p190
(dp191
g15
(lp192
F0.46292088549482596
aF0.0040992464315872165
asg9
(lp193
F2.8406130333079833
aF0.7915481494778376
asg17
(lp194
sg24
g55
sg26
(lp195
g57
ag48
asba(iTFClasses
function
p196
(dp197
g15
(lp198
F1.6831111628665272
aF0.324524091180736
aF0.013948591690807508
asg9
(lp199
F6.439933006588112
aF0.5992746532167492
aF0.05812501140990932
asg17
(lp200
sg24
g63
sg26
(lp201
g57
ag57
ag57
asbasbas.