(dp0
S'b'
p1
(lp2
(iTFClasses
TF
p3
(dp4
S'SingleBinFunc'
p5
(iTFClasses
function
p6
(dp7
S'DG_rel_weight'
p8
F0.7
sS'par_values'
p9
(lp10
F1864.0780754791106
aF31.755453073743055
aF4.378715909000186
aF22.52140736227004
aF11.646304376063066
asS'DG_mean'
p11
(lp12
S'[1]'
p13
aS'[3]'
p14
asS'par_errors'
p15
(lp16
F25.789790417273977
aF0.15493100537328175
aF0.15584165054194354
aF1.559474124474491
aF0.6896744315336161
asS'par_limits'
p17
(lp18
(I1
F0.0
F2000.0
tp19
a(I2
F0.0
F2000.0
tp20
a(I3
F0.0
F2000.0
tp21
a(I4
F0.0
F2000.0
tp22
asS'Is_DG'
p23
I01
sS'str'
p24
S'[0]*(0.7*exp(-0.5*((x-([1]))/([2]))**2)+(1-0.7)*exp(-0.5*((x-([3]))/([2]+[4]))**2))'
p25
sS'par_initials'
p26
(lp27
S'0'
p28
aS'1.1*mean'
p29
aS'1.0*rms'
p30
aS'0.7*mean'
p31
aS'0.5*rms'
p32
asS'fitrange'
p33
(F30.1
F500.0
tp34
sS'DG_rms'
p35
(lp36
S'[2]'
p37
aS'[2]+[4]'
p38
asbsS'i_eta'
p39
I0
sS'particle'
p40
g1
sS'AcrossBinFuncs'
p41
(lp42
(iTFClasses
function
p43
(dp44
g15
(lp45
sg9
(lp46
sg17
(lp47
sg24
S'1'
p48
sg26
(lp49
sba(iTFClasses
function
p50
(dp51
g15
(lp52
F0.06128562209961184
aF0.0006154334708074569
asg9
(lp53
F-4.896004328162641
aF1.0065170778538337
asg17
(lp54
sg24
S'[0]+[1]*x'
p55
sg26
(lp56
S'0'
p57
ag48
asba(iTFClasses
function
p58
(dp59
g15
(lp60
F0.31488721229011696
aF0.005797782788080852
aF0.0013140658111190598
asg9
(lp61
F1.908905295745306e-11
aF1.1125754727840824
aF0.04427748280189645
asg17
(lp62
sg24
S'sqrt([0]*[0] + x*[1]*[1] + x*x*[2]*[2])'
p63
sg26
(lp64
g57
ag57
ag57
asba(iTFClasses
function
p65
(dp66
g15
(lp67
F0.1427596681927335
aF0.0012623075456259412
asg9
(lp68
F-10.743027597569514
aF0.9754925799773771
asg17
(lp69
sg24
g55
sg26
(lp70
g57
ag48
asba(iTFClasses
function
p71
(dp72
g15
(lp73
F0.2019352100932199
aF0.0674025669797321
aF0.0005954518747247304
asg9
(lp74
F-4.3082294574617155
aF-2.9435797690698055e-07
aF0.13439631051723988
asg17
(lp75
sg24
g63
sg26
(lp76
g57
ag57
ag57
asbasba(iTFClasses
TF
p77
(dp78
g5
(iTFClasses
function
p79
(dp80
g8
F0.7
sg9
(lp81
F1631.3750487346965
aF31.462267240857322
aF5.789812562772889
aF13.300142755983124
aF14.226639555359078
asg11
(lp82
g13
ag14
asg15
(lp83
F53.68331051474626
aF0.25903355757600544
aF0.24591483788699575
aF5.148001127330215
aF2.104631034037795
asg17
(lp84
g19
ag20
ag21
ag22
asg23
I01
sg24
g25
sg26
(lp85
g28
ag29
ag30
ag31
ag32
asg33
g34
sg35
(lp86
g37
ag38
asbsg39
I1
sg40
g1
sg41
(lp87
(iTFClasses
function
p88
(dp89
g15
(lp90
sg9
(lp91
sg17
(lp92
sg24
g48
sg26
(lp93
sba(iTFClasses
function
p94
(dp95
g15
(lp96
F0.0907175844070022
aF0.0009346152380065934
asg9
(lp97
F-5.238945568703224
aF0.9987841516344657
asg17
(lp98
sg24
g55
sg26
(lp99
g57
ag48
asba(iTFClasses
function
p100
(dp101
g15
(lp102
F0.35021159941759744
aF0.008400901764092798
aF0.001827677048299348
asg9
(lp103
F-1.019944443409968e-06
aF1.2391467367816864
aF0.05396696046459398
asg17
(lp104
sg24
g63
sg26
(lp105
g57
ag57
ag57
asba(iTFClasses
function
p106
(dp107
g15
(lp108
F0.22759877659480918
aF0.0019938733283989267
asg9
(lp109
F-10.681997758511866
aF0.9562130761818135
asg17
(lp110
sg24
g55
sg26
(lp111
g57
ag48
asba(iTFClasses
function
p112
(dp113
g15
(lp114
F0.42004222890951015
aF0.10572479975357106
aF0.0009045950018055706
asg9
(lp115
F2.909928142178644
aF3.7786751706963223e-06
aF0.12614646737152876
asg17
(lp116
sg24
g63
sg26
(lp117
g57
ag57
ag57
asbasbasS'l'
p118
(lp119
(iTFClasses
TF
p120
(dp121
g5
(iTFClasses
function
p122
(dp123
g8
F0.7
sg9
(lp124
F2377.138716775333
aF29.513794825738458
aF6.5447216237440875
aF10.862899426146821
aF14.520130925742002
asg11
(lp125
g13
ag14
asg15
(lp126
F99.03731359791044
aF0.45714859201356717
aF0.3064759948813167
aF4.713742848112101
aF1.774645198469205
asg17
(lp127
g19
ag20
ag21
ag22
asg23
I01
sg24
g25
sg26
(lp128
g28
ag29
ag30
ag31
ag32
asg33
g34
sg35
(lp129
g37
ag38
asbsg39
I0
sg40
g118
sg41
(lp130
(iTFClasses
function
p131
(dp132
g15
(lp133
sg9
(lp134
sg17
(lp135
sg24
g48
sg26
(lp136
sba(iTFClasses
function
p137
(dp138
g15
(lp139
F0.05273008361915579
aF0.0006628953182178623
asg9
(lp140
F-2.1570847668253452
aF1.0298907042661174
asg17
(lp141
sg24
g55
sg26
(lp142
g57
ag48
asba(iTFClasses
function
p143
(dp144
g15
(lp145
F0.9370518767426389
aF0.006346523258275696
aF0.0011652192202394422
asg9
(lp146
F3.660237970053265e-05
aF0.9452799018314229
aF0.05340923444219361
asg17
(lp147
sg24
g63
sg26
(lp148
g57
ag57
ag57
asba(iTFClasses
function
p149
(dp150
g15
(lp151
F0.13165415606776973
aF0.0014362192176582765
asg9
(lp152
F-7.642079461447801
aF1.0530654276833904
asg17
(lp153
sg24
g55
sg26
(lp154
g57
ag48
asba(iTFClasses
function
p155
(dp156
g15
(lp157
F0.7007720862227035
aF0.07409834924364414
aF0.00452111229079175
asg9
(lp158
F4.674534609850427
aF0.9159559175309164
aF0.0709883883773642
asg17
(lp159
sg24
g63
sg26
(lp160
g57
ag57
ag57
asbasba(iTFClasses
TF
p161
(dp162
g5
(iTFClasses
function
p163
(dp164
g8
F0.7
sg9
(lp165
F1541.0999348762944
aF31.48445004165257
aF6.6799636590713085
aF15.757424279735922
aF12.7548388821358
asg11
(lp166
g13
ag14
asg15
(lp167
F55.49815555905739
aF0.3198315194826158
aF0.2751780002024362
aF5.029424083387024
aF1.9792573537947824
asg17
(lp168
g19
ag20
ag21
ag22
asg23
I01
sg24
g25
sg26
(lp169
g28
ag29
ag30
ag31
ag32
asg33
g34
sg35
(lp170
g37
ag38
asbsg39
I1
sg40
g118
sg41
(lp171
(iTFClasses
function
p172
(dp173
g15
(lp174
sg9
(lp175
sg17
(lp176
sg24
g48
sg26
(lp177
sba(iTFClasses
function
p178
(dp179
g15
(lp180
F0.10224660983399751
aF0.0011658255099454404
asg9
(lp181
F-2.162317361944695
aF1.0352861055238798
asg17
(lp182
sg24
g55
sg26
(lp183
g57
ag48
asba(iTFClasses
function
p184
(dp185
g15
(lp186
F1.0575651469207537
aF0.04449738802391698
aF0.005064327439906654
asg9
(lp187
F2.069393583671882
aF1.1166914345664944
aF0.0491900060740585
asg17
(lp188
sg24
g63
sg26
(lp189
g57
ag57
ag57
asba(iTFClasses
function
p190
(dp191
g15
(lp192
F0.22597179252928587
aF0.0022662786825181666
asg9
(lp193
F-8.109393539729153
aF1.0402818443425474
asg17
(lp194
sg24
g55
sg26
(lp195
g57
ag48
asba(iTFClasses
function
p196
(dp197
g15
(lp198
F3.9449598504099392
aF6.579166903113628
aF0.027130184754230253
asg9
(lp199
F7.2298225585277445
aF0.0887686895816881
aF0.09753473143387832
asg17
(lp200
sg24
g63
sg26
(lp201
g57
ag57
ag57
asbasbas.