(dp0
S'b'
p1
(lp2
(iTFClasses
TF
p3
(dp4
S'SingleBinFunc'
p5
(iTFClasses
function
p6
(dp7
S'DG_rel_weight'
p8
F0.7
sS'par_values'
p9
(lp10
F1748.222452960064
aF31.707361753842477
aF4.471963184005334
aF23.592447224011217
aF11.171706218322864
asS'DG_mean'
p11
(lp12
S'[1]'
p13
aS'[3]'
p14
asS'par_errors'
p15
(lp16
F24.24906869617271
aF0.16788933479455714
aF0.16720109688211915
aF1.5378355681842653
aF0.6787649062658936
asS'par_limits'
p17
(lp18
(I1
F0.0
F2000.0
tp19
a(I2
F0.0
F2000.0
tp20
a(I3
F0.0
F2000.0
tp21
a(I4
F0.0
F2000.0
tp22
asS'Is_DG'
p23
I01
sS'str'
p24
S'[0]*(0.7*exp(-0.5*((x-([1]))/([2]))**2)+(1-0.7)*exp(-0.5*((x-([3]))/([2]+[4]))**2))'
p25
sS'par_initials'
p26
(lp27
S'0'
p28
aS'1.1*mean'
p29
aS'1.0*rms'
p30
aS'0.7*mean'
p31
aS'0.5*rms'
p32
asS'fitrange'
p33
(F30.1
F500.0
tp34
sS'DG_rms'
p35
(lp36
S'[2]'
p37
aS'[2]+[4]'
p38
asbsS'i_eta'
p39
I0
sS'particle'
p40
g1
sS'AcrossBinFuncs'
p41
(lp42
(iTFClasses
function
p43
(dp44
g15
(lp45
sg9
(lp46
sg17
(lp47
sg24
S'1'
p48
sg26
(lp49
sba(iTFClasses
function
p50
(dp51
g15
(lp52
F0.0477531873784094
aF0.0004925834888911579
asg9
(lp53
F-5.043327781221093
aF1.00664802422272
asg17
(lp54
sg24
S'[0]+[1]*x'
p55
sg26
(lp56
S'0'
p57
ag48
asba(iTFClasses
function
p58
(dp59
g15
(lp60
F0.5253085974114486
aF0.0062709887508302165
aF0.0015432459782775704
asg9
(lp61
F2.5017288797663966e-06
aF1.1689466749869943
aF0.04191091150973821
asg17
(lp62
sg24
S'sqrt([0]*[0] + x*[1]*[1] + x*x*[2]*[2])'
p63
sg26
(lp64
g57
ag57
ag57
asba(iTFClasses
function
p65
(dp66
g15
(lp67
F0.15276915422394513
aF0.0013397311582286698
asg9
(lp68
F-10.843826023335819
aF0.976844741683227
asg17
(lp69
sg24
g55
sg26
(lp70
g57
ag48
asba(iTFClasses
function
p71
(dp72
g15
(lp73
F0.2228924422313484
aF0.06955727701372233
aF0.0006351643828042076
asg9
(lp74
F4.252581576899559
aF1.600911397756094e-10
aF0.13404315237030795
asg17
(lp75
sg24
g63
sg26
(lp76
g57
ag57
ag57
asbasba(iTFClasses
TF
p77
(dp78
g5
(iTFClasses
function
p79
(dp80
g8
F0.7
sg9
(lp81
F1548.1432077540028
aF31.597883280773065
aF5.599573475045361
aF15.764359238821246
aF13.195707941712321
asg11
(lp82
g13
ag14
asg15
(lp83
F43.789657875201236
aF0.23640771185812248
aF0.22599743278262086
aF4.067017180308608
aF1.657381156432602
asg17
(lp84
g19
ag20
ag21
ag22
asg23
I01
sg24
g25
sg26
(lp85
g28
ag29
ag30
ag31
ag32
asg33
g34
sg35
(lp86
g37
ag38
asbsg39
I1
sg40
g1
sg41
(lp87
(iTFClasses
function
p88
(dp89
g15
(lp90
sg9
(lp91
sg17
(lp92
sg24
g48
sg26
(lp93
sba(iTFClasses
function
p94
(dp95
g15
(lp96
F0.09141859309558141
aF0.0009417677315942362
asg9
(lp97
F-5.221675930760734
aF0.9990904053689647
asg17
(lp98
sg24
g55
sg26
(lp99
g57
ag48
asba(iTFClasses
function
p100
(dp101
g15
(lp102
F0.36136057828754764
aF0.008423154927098202
aF0.0018549638397380415
asg9
(lp103
F-3.80904272828795e-08
aF1.2209144867632444
aF0.052724608086182095
asg17
(lp104
sg24
g63
sg26
(lp105
g57
ag57
ag57
asba(iTFClasses
function
p106
(dp107
g15
(lp108
F0.22692405980818156
aF0.001996452932091743
asg9
(lp109
F-10.680599446149497
aF0.9566583445755665
asg17
(lp110
sg24
g55
sg26
(lp111
g57
ag48
asba(iTFClasses
function
p112
(dp113
g15
(lp114
F0.3990821857899162
aF0.10948924676583077
aF0.0009117601586651493
asg9
(lp115
F3.103466929431864
aF8.791363201287421e-06
aF0.1268516941469474
asg17
(lp116
sg24
g63
sg26
(lp117
g57
ag57
ag57
asbasbasS'l'
p118
(lp119
(iTFClasses
TF
p120
(dp121
g5
(iTFClasses
function
p122
(dp123
g8
F0.7
sg9
(lp124
F2261.5996359140004
aF29.244227741296758
aF6.858804905893745
aF9.264865466267036
aF15.069041006562367
asg11
(lp125
g13
ag14
asg15
(lp126
F110.40935558723908
aF0.5264337454349857
aF0.3507081705320658
aF5.847568707627649
aF2.2035501092756427
asg17
(lp127
g19
ag20
ag21
ag22
asg23
I01
sg24
g25
sg26
(lp128
g28
ag29
ag30
ag31
ag32
asg33
g34
sg35
(lp129
g37
ag38
asbsg39
I0
sg40
g118
sg41
(lp130
(iTFClasses
function
p131
(dp132
g15
(lp133
sg9
(lp134
sg17
(lp135
sg24
g48
sg26
(lp136
sba(iTFClasses
function
p137
(dp138
g15
(lp139
F0.06530967390303666
aF0.0007724500958062025
asg9
(lp140
F-2.1699644644759037
aF1.0304737477126007
asg17
(lp141
sg24
g55
sg26
(lp142
g57
ag48
asba(iTFClasses
function
p143
(dp144
g15
(lp145
F0.7478085426927044
aF0.006716494963705664
aF0.0012103040923848655
asg9
(lp146
F-4.8120087134125104e-05
aF0.9706252832994364
aF0.05592232229295601
asg17
(lp147
sg24
g63
sg26
(lp148
g57
ag57
ag57
asba(iTFClasses
function
p149
(dp150
g15
(lp151
F0.1495343987977461
aF0.0015300149194824827
asg9
(lp152
F-7.67735678910897
aF1.0537771025531495
asg17
(lp153
sg24
g55
sg26
(lp154
g57
ag48
asba(iTFClasses
function
p155
(dp156
g15
(lp157
F0.7265552088716376
aF0.08257957951181133
aF0.004631793399465574
asg9
(lp158
F4.901412711076609
aF0.8902348754797567
aF0.07473407024558115
asg17
(lp159
sg24
g63
sg26
(lp160
g57
ag57
ag57
asbasba(iTFClasses
TF
p161
(dp162
g5
(iTFClasses
function
p163
(dp164
g8
F0.7
sg9
(lp165
F1496.6111437673114
aF31.44211257702578
aF6.596867037886978
aF15.43472112888422
aF12.807602273698148
asg11
(lp166
g13
ag14
asg15
(lp167
F54.47828742437583
aF0.32389794822079665
aF0.27564901971099953
aF5.0445381768731705
aF1.9755702375627289
asg17
(lp168
g19
ag20
ag21
ag22
asg23
I01
sg24
g25
sg26
(lp169
g28
ag29
ag30
ag31
ag32
asg33
g34
sg35
(lp170
g37
ag38
asbsg39
I1
sg40
g118
sg41
(lp171
(iTFClasses
function
p172
(dp173
g15
(lp174
sg9
(lp175
sg17
(lp176
sg24
g48
sg26
(lp177
sba(iTFClasses
function
p178
(dp179
g15
(lp180
F0.09700098290962235
aF0.0011308642469239807
asg9
(lp181
F-2.1405194358218997
aF1.0344413524714948
asg17
(lp182
sg24
g55
sg26
(lp183
g57
ag48
asba(iTFClasses
function
p184
(dp185
g15
(lp186
F1.2576268072532129
aF0.008719901078409528
aF0.0022358503709729704
asg9
(lp187
F-2.447643160236612e-06
aF1.1289903681395033
aF0.045869708258193996
asg17
(lp188
sg24
g63
sg26
(lp189
g57
ag57
ag57
asba(iTFClasses
function
p190
(dp191
g15
(lp192
F0.22155712354596935
aF0.0022413652182054077
asg9
(lp193
F-7.946200755715994
aF1.0393446390357104
asg17
(lp194
sg24
g55
sg26
(lp195
g57
ag48
asba(iTFClasses
function
p196
(dp197
g15
(lp198
F0.8586104440940406
aF0.21689842112452334
aF0.0056247144219843314
asg9
(lp199
F6.225764161960192
aF0.5047859679836397
aF0.09206412755735473
asg17
(lp200
sg24
g63
sg26
(lp201
g57
ag57
ag57
asbasbas.