(dp0
S'b'
p1
(lp2
(iTFClasses
TF
p3
(dp4
S'SingleBinFunc'
p5
(iTFClasses
function
p6
(dp7
S'DG_rel_weight'
p8
F0.7
sS'par_values'
p9
(lp10
F2977.267895248157
aF26.890628511540115
aF6.992931808246894
aF2.565196943749015e-07
aF17.843743020402258
asS'DG_mean'
p11
(lp12
S'[1]'
p13
aS'[3]'
p14
asS'par_errors'
p15
(lp16
F120.27467825295193
aF0.546869097418579
aF0.2084465523517487
aF2.4302545504031325
aF0.46405632705320876
asS'par_limits'
p17
(lp18
(I1
F0.0
F2000.0
tp19
a(I2
F0.0
F2000.0
tp20
a(I3
F0.0
F2000.0
tp21
a(I4
F0.0
F2000.0
tp22
asS'Is_DG'
p23
I01
sS'str'
p24
S'[0]*(0.7*exp(-0.5*((x-([1]))/([2]))**2)+(1-0.7)*exp(-0.5*((x-([3]))/([2]+[4]))**2))'
p25
sS'par_initials'
p26
(lp27
S'0'
p28
aS'1.1*mean'
p29
aS'1.0*rms'
p30
aS'0.7*mean'
p31
aS'0.5*rms'
p32
asS'fitrange'
p33
(F30.1
F500.0
tp34
sS'DG_rms'
p35
(lp36
S'[2]'
p37
aS'[2]+[4]'
p38
asbsS'i_eta'
p39
I0
sS'particle'
p40
g1
sS'AcrossBinFuncs'
p41
(lp42
(iTFClasses
function
p43
(dp44
g15
(lp45
sg9
(lp46
sg17
(lp47
sg24
S'1'
p48
sg26
(lp49
sba(iTFClasses
function
p50
(dp51
g15
(lp52
F0.06816670418911941
aF0.0006845597605635497
asg9
(lp53
F-5.725760763824036
aF1.005404684728572
asg17
(lp54
sg24
S'[0]+[1]*x'
p55
sg26
(lp56
S'0'
p57
ag48
asba(iTFClasses
function
p58
(dp59
g15
(lp60
F0.32923489910916026
aF0.006470379954916656
aF0.0014071872741992274
asg9
(lp61
F-1.8209784200198778e-08
aF1.1005034250728498
aF0.04577459010883814
asg17
(lp62
sg24
S'sqrt([0]*[0] + x*[1]*[1] + x*x*[2]*[2])'
p63
sg26
(lp64
g57
ag57
ag57
asba(iTFClasses
function
p65
(dp66
g15
(lp67
F0.16248877657002736
aF0.0014238487876836144
asg9
(lp68
F-12.072940043429478
aF0.9768249148964597
asg17
(lp69
sg24
g55
sg26
(lp70
g57
ag48
asba(iTFClasses
function
p71
(dp72
g15
(lp73
F0.22359237466014184
aF0.07167976814900807
aF0.0006704672237627868
asg9
(lp74
F4.427245143719499
aF-1.996943145636191e-06
aF0.13257211593119433
asg17
(lp75
sg24
g63
sg26
(lp76
g57
ag57
ag57
asbasba(iTFClasses
TF
p77
(dp78
g5
(iTFClasses
function
p79
(dp80
g8
F0.7
sg9
(lp81
F1177.6352714393083
aF30.872689803538854
aF5.603459024416835
aF11.317684174346532
aF15.001478902279096
asg11
(lp82
g13
ag14
asg15
(lp83
F44.28538624709474
aF0.3498899224511085
aF0.2847815756455985
aF5.5223993269812315
aF2.2535363304064244
asg17
(lp84
g19
ag20
ag21
ag22
asg23
I01
sg24
g25
sg26
(lp85
g28
ag29
ag30
ag31
ag32
asg33
g34
sg35
(lp86
g37
ag38
asbsg39
I1
sg40
g1
sg41
(lp87
(iTFClasses
function
p88
(dp89
g15
(lp90
sg9
(lp91
sg17
(lp92
sg24
g48
sg26
(lp93
sba(iTFClasses
function
p94
(dp95
g15
(lp96
F0.10853784258651826
aF0.0010800117526271423
asg9
(lp97
F-6.634682228260842
aF0.9948748934943903
asg17
(lp98
sg24
g55
sg26
(lp99
g57
ag48
asba(iTFClasses
function
p100
(dp101
g15
(lp102
F0.4257616243972776
aF0.010003550434886056
aF0.0022519372479395507
asg9
(lp103
F7.106212946782938e-07
aF1.25041945691154
aF0.05059752144813518
asg17
(lp104
sg24
g63
sg26
(lp105
g57
ag57
ag57
asba(iTFClasses
function
p106
(dp107
g15
(lp108
F0.2501723260302259
aF0.0018170010080344392
asg9
(lp109
F-11.630795255092739
aF0.9489179553620214
asg17
(lp110
sg24
g55
sg26
(lp111
g57
ag48
asba(iTFClasses
function
p112
(dp113
g15
(lp114
F0.46253599596252326
aF0.11940206033233186
aF0.0010382193311457076
asg9
(lp115
F3.1426329390327394
aF9.244036118173149e-07
aF0.12467801925812705
asg17
(lp116
sg24
g63
sg26
(lp117
g57
ag57
ag57
asbasbasS'l'
p118
(lp119
(iTFClasses
TF
p120
(dp121
g5
(iTFClasses
function
p122
(dp123
g8
F0.7
sg9
(lp124
F2186.219749442549
aF27.24491107801963
aF7.256360474399592
aF7.427991555175595e-08
aF17.52995479943509
asg11
(lp125
g13
ag14
asg15
(lp126
F81.96768578977444
aF0.5686278804218912
aF0.23482793977802618
aF11.77965720286317
aF0.4968482747846341
asg17
(lp127
g19
ag20
ag21
ag22
asg23
I01
sg24
g25
sg26
(lp128
g28
ag29
ag30
ag31
ag32
asg33
g34
sg35
(lp129
g37
ag38
asbsg39
I0
sg40
g118
sg41
(lp130
(iTFClasses
function
p131
(dp132
g15
(lp133
sg9
(lp134
sg17
(lp135
sg24
g48
sg26
(lp136
sba(iTFClasses
function
p137
(dp138
g15
(lp139
F0.06973074013574863
aF0.0008194047568516165
asg9
(lp140
F-2.9362916273654625
aF1.0283444935791557
asg17
(lp141
sg24
g55
sg26
(lp142
g57
ag48
asba(iTFClasses
function
p143
(dp144
g15
(lp145
F0.8951894646361466
aF0.0073864071038588905
aF0.0013152756090707785
asg9
(lp146
F5.504827329424576e-09
aF0.9363248857442782
aF0.05398619065556288
asg17
(lp147
sg24
g63
sg26
(lp148
g57
ag57
ag57
asba(iTFClasses
function
p149
(dp150
g15
(lp151
F0.16251012756063868
aF0.0016431057800520988
asg9
(lp152
F-9.386188954484183
aF1.0581308397489644
asg17
(lp153
sg24
g55
sg26
(lp154
g57
ag48
asba(iTFClasses
function
p155
(dp156
g15
(lp157
F0.6377030177883053
aF0.11350644944649363
aF0.004787903413677876
asg9
(lp158
F6.312345945501883
aF0.7173612352653531
aF0.0789301173093614
asg17
(lp159
sg24
g63
sg26
(lp160
g57
ag57
ag57
asbasba(iTFClasses
TF
p161
(dp162
g5
(iTFClasses
function
p163
(dp164
g8
F0.7
sg9
(lp165
F1176.6519661083616
aF30.076933442891864
aF6.615515362578983
aF16.814992695800445
aF12.036788446469714
asg11
(lp166
g13
ag14
asg15
(lp167
F58.6751176475813
aF0.5746845288302485
aF0.43675626498806963
aF5.225916541723164
aF1.8569669802205304
asg17
(lp168
g19
ag20
ag21
ag22
asg23
I01
sg24
g25
sg26
(lp169
g28
ag29
ag30
ag31
ag32
asg33
g34
sg35
(lp170
g37
ag38
asbsg39
I1
sg40
g118
sg41
(lp171
(iTFClasses
function
p172
(dp173
g15
(lp174
sg9
(lp175
sg17
(lp176
sg24
g48
sg26
(lp177
sba(iTFClasses
function
p178
(dp179
g15
(lp180
F0.11851052947919431
aF0.0013263232054688096
asg9
(lp181
F-3.3576080473847387
aF1.0286265459384796
asg17
(lp182
sg24
g55
sg26
(lp183
g57
ag48
asba(iTFClasses
function
p184
(dp185
g15
(lp186
F0.7903765543941557
aF0.05414180764300279
aF0.005435824908307417
asg9
(lp187
F3.291618700584035
aF1.0659977552939186
aF0.052518662352086735
asg17
(lp188
sg24
g63
sg26
(lp189
g57
ag57
ag57
asba(iTFClasses
function
p190
(dp191
g15
(lp192
F0.2614518772812274
aF0.0025802460553295894
asg9
(lp193
F-9.371418289240648
aF1.0369604461428432
asg17
(lp194
sg24
g55
sg26
(lp195
g57
ag48
asba(iTFClasses
function
p196
(dp197
g15
(lp198
F0.19551601141966624
aF0.4834099050841732
aF0.0015164847939032583
asg9
(lp199
F7.279609621047377
aF2.257847626192973e-06
aF0.09492861976110017
asg17
(lp200
sg24
g63
sg26
(lp201
g57
ag57
ag57
asbasbas.