(dp0
S'b'
p1
(lp2
(iTFClasses
TF
p3
(dp4
S'SingleBinFunc'
p5
(iTFClasses
function
p6
(dp7
S'DG_rel_weight'
p8
F0.7
sS'par_values'
p9
(lp10
F3215.065026063119
aF31.62574650902805
aF4.70601187634323
aF21.09891762155258
aF12.234813792494359
asS'DG_mean'
p11
(lp12
S'[1]'
p13
aS'[3]'
p14
asS'par_errors'
p15
(lp16
F38.078008677001506
aF0.13312322149639044
aF0.1275212239365553
aF1.420618070616829
aF0.6219593373159578
asS'par_limits'
p17
(lp18
(I1
F0.0
F2000.0
tp19
a(I2
F0.0
F2000.0
tp20
a(I3
F0.0
F2000.0
tp21
a(I4
F0.0
F2000.0
tp22
asS'Is_DG'
p23
I01
sS'str'
p24
S'[0]*(0.7*exp(-0.5*((x-([1]))/([2]))**2)+(1-0.7)*exp(-0.5*((x-([3]))/([2]+[4]))**2))'
p25
sS'par_initials'
p26
(lp27
S'0'
p28
aS'1.1*mean'
p29
aS'1.0*rms'
p30
aS'0.7*mean'
p31
aS'0.5*rms'
p32
asS'fitrange'
p33
(F30.1
F500.0
tp34
sS'DG_rms'
p35
(lp36
S'[2]'
p37
aS'[2]+[4]'
p38
asbsS'i_eta'
p39
I0
sS'particle'
p40
g1
sS'AcrossBinFuncs'
p41
(lp42
(iTFClasses
function
p43
(dp44
g15
(lp45
sg9
(lp46
sg17
(lp47
sg24
S'1'
p48
sg26
(lp49
sba(iTFClasses
function
p50
(dp51
g15
(lp52
F0.028478508239372428
aF0.00031890352316765497
asg9
(lp53
F-4.954786475234948
aF1.007260882969685
asg17
(lp54
sg24
S'[0]+[1]*x'
p55
sg26
(lp56
S'0'
p57
ag48
asba(iTFClasses
function
p58
(dp59
g15
(lp60
F0.2326468685945914
aF0.004530146514291649
aF0.0009510232966262991
asg9
(lp61
F3.1408490248084646e-06
aF1.1297695465132827
aF0.04856297987316442
asg17
(lp62
sg24
S'sqrt([0]*[0] + x*[1]*[1] + x*x*[2]*[2])'
p63
sg26
(lp64
g57
ag57
ag57
asba(iTFClasses
function
p65
(dp66
g15
(lp67
F0.11033528828686963
aF0.0009720969729516771
asg9
(lp68
F-10.024156077750485
aF0.9659680180943151
asg17
(lp69
sg24
g55
sg26
(lp70
g57
ag48
asba(iTFClasses
function
p71
(dp72
g15
(lp73
F0.14259529713887634
aF0.05217911255248656
aF0.00046619448189293665
asg9
(lp74
F4.692255530165891
aF2.7189482444473387e-08
aF0.12979944092381018
asg17
(lp75
sg24
g63
sg26
(lp76
g57
ag57
ag57
asbasba(iTFClasses
TF
p77
(dp78
g5
(iTFClasses
function
p79
(dp80
g8
F0.7
sg9
(lp81
F2861.5622792599297
aF31.570262764845538
aF5.51759147183617
aF16.10958078157776
aF13.112927654670536
asg11
(lp82
g13
ag14
asg15
(lp83
F63.722103914012834
aF0.17942651680174926
aF0.1754311552415455
aF3.2085937654880983
aF1.3210527730938004
asg17
(lp84
g19
ag20
ag21
ag22
asg23
I01
sg24
g25
sg26
(lp85
g28
ag29
ag30
ag31
ag32
asg33
g34
sg35
(lp86
g37
ag38
asbsg39
I1
sg40
g1
sg41
(lp87
(iTFClasses
function
p88
(dp89
g15
(lp90
sg9
(lp91
sg17
(lp92
sg24
g48
sg26
(lp93
sba(iTFClasses
function
p94
(dp95
g15
(lp96
F0.06803746682826745
aF0.0006955095700452807
asg9
(lp97
F-5.200265310259034
aF0.9997286549617435
asg17
(lp98
sg24
g55
sg26
(lp99
g57
ag48
asba(iTFClasses
function
p100
(dp101
g15
(lp102
F0.2748086916914486
aF0.006179338204626486
aF0.0014113848683346946
asg9
(lp103
F1.2483876805295235e-10
aF1.2300419072328452
aF0.05058764063342635
asg17
(lp104
sg24
g63
sg26
(lp105
g57
ag57
ag57
asba(iTFClasses
function
p106
(dp107
g15
(lp108
F0.16781877722838176
aF0.0014718651285408689
asg9
(lp109
F-9.843981961743246
aF0.9454636431199728
asg17
(lp110
sg24
g55
sg26
(lp111
g57
ag48
asba(iTFClasses
function
p112
(dp113
g15
(lp114
F0.30371635628319166
aF0.08713141146074184
aF0.0006732793973379316
asg9
(lp115
F2.9714717135380555
aF-9.381754927625666e-11
aF0.12469813073421425
asg17
(lp116
sg24
g63
sg26
(lp117
g57
ag57
ag57
asbasbasS'l'
p118
(lp119
(iTFClasses
TF
p120
(dp121
g5
(iTFClasses
function
p122
(dp123
g8
F0.7
sg9
(lp124
F4033.4927354744777
aF29.628471583344695
aF6.66742853321689
aF12.688679575987628
aF13.768356843415708
asg11
(lp125
g13
ag14
asg15
(lp126
F135.07537057034014
aF0.35787521331159766
aF0.25579601269548613
aF3.844464876454735
aF1.443456388369734
asg17
(lp127
g19
ag20
ag21
ag22
asg23
I01
sg24
g25
sg26
(lp128
g28
ag29
ag30
ag31
ag32
asg33
g34
sg35
(lp129
g37
ag38
asbsg39
I0
sg40
g118
sg41
(lp130
(iTFClasses
function
p131
(dp132
g15
(lp133
sg9
(lp134
sg17
(lp135
sg24
g48
sg26
(lp136
sba(iTFClasses
function
p137
(dp138
g15
(lp139
F0.04789154569554438
aF0.000568062346763186
asg9
(lp140
F-2.1348226625459374
aF1.0304082745772165
asg17
(lp141
sg24
g55
sg26
(lp142
g57
ag48
asba(iTFClasses
function
p143
(dp144
g15
(lp145
F0.5879603422444365
aF0.00492847284821621
aF0.0008949410256178003
asg9
(lp146
F2.4323115724839485e-07
aF0.9715656172172574
aF0.05561296591859069
asg17
(lp147
sg24
g63
sg26
(lp148
g57
ag57
ag57
asba(iTFClasses
function
p149
(dp150
g15
(lp151
F0.10959261155454776
aF0.0011238696331520614
asg9
(lp152
F-7.896646595099094
aF1.0545143079876687
asg17
(lp153
sg24
g55
sg26
(lp154
g57
ag48
asba(iTFClasses
function
p155
(dp156
g15
(lp157
F0.48217802237062724
aF0.0678988480415091
aF0.0032405260990585488
asg9
(lp158
F5.489697656337045
aF0.806003137897538
aF0.07946047864356297
asg17
(lp159
sg24
g63
sg26
(lp160
g57
ag57
ag57
asbasba(iTFClasses
TF
p161
(dp162
g5
(iTFClasses
function
p163
(dp164
g8
F0.7
sg9
(lp165
F2693.605834179084
aF31.512228423232315
aF6.357849854884856
aF21.376668645519125
aF10.417181999546221
asg11
(lp166
g13
ag14
asg15
(lp167
F56.91949564162231
aF0.21819331723110835
aF0.19804219488078756
aF2.6155262037206306
aF1.0282835529127903
asg17
(lp168
g19
ag20
ag21
ag22
asg23
I01
sg24
g25
sg26
(lp169
g28
ag29
ag30
ag31
ag32
asg33
g34
sg35
(lp170
g37
ag38
asbsg39
I1
sg40
g118
sg41
(lp171
(iTFClasses
function
p172
(dp173
g15
(lp174
sg9
(lp175
sg17
(lp176
sg24
g48
sg26
(lp177
sba(iTFClasses
function
p178
(dp179
g15
(lp180
F0.07281239342874345
aF0.0008416725796583394
asg9
(lp181
F-2.109522929621457
aF1.0332209311867537
asg17
(lp182
sg24
g55
sg26
(lp183
g57
ag48
asba(iTFClasses
function
p184
(dp185
g15
(lp186
F1.7257337570042148
aF0.02924285916343751
aF0.0037684377569122806
asg9
(lp187
F0.7950079329877904
aF1.1277482956553244
aF0.04553922352867339
asg17
(lp188
sg24
g63
sg26
(lp189
g57
ag57
ag57
asba(iTFClasses
function
p190
(dp191
g15
(lp192
F0.1632364214275431
aF0.0016501363899932742
asg9
(lp193
F-7.945740767869716
aF1.0390582575312592
asg17
(lp194
sg24
g55
sg26
(lp195
g57
ag48
asba(iTFClasses
function
p196
(dp197
g15
(lp198
F0.8285657820168754
aF0.10859741955295278
aF0.004497600433335366
asg9
(lp199
F4.8298642589533225
aF0.7533957854663182
aF0.08591257040554484
asg17
(lp200
sg24
g63
sg26
(lp201
g57
ag57
ag57
asbasbas.