(dp0
S'b'
p1
(lp2
(iTFClasses
TF
p3
(dp4
S'SingleBinFunc'
p5
(iTFClasses
function
p6
(dp7
S'DG_rel_weight'
p8
F0.7
sS'par_values'
p9
(lp10
F375.25425129410297
aF32.62428861246058
aF6.168600381946776
aF27.61572600187412
aF14.262019507398914
asS'DG_mean'
p11
(lp12
S'[1]'
p13
aS'[3]'
p14
asS'par_errors'
p15
(lp16
F6.6893759637314805
aF0.3909543040234169
aF0.2962382228194338
aF1.462973245842381
aF0.6029011946336871
asS'par_limits'
p17
(lp18
(I1
F0.0
F2000.0
tp19
a(I2
F0.0
F2000.0
tp20
a(I3
F0.0
F2000.0
tp21
a(I4
F0.0
F2000.0
tp22
asS'Is_DG'
p23
I01
sS'str'
p24
S'[0]*(0.7*exp(-0.5*((x-([1]))/([2]))**2)+(1-0.7)*exp(-0.5*((x-([3]))/([2]+[4]))**2))'
p25
sS'par_initials'
p26
(lp27
S'0'
p28
aS'1.1*mean'
p29
aS'1.0*rms'
p30
aS'0.7*mean'
p31
aS'0.5*rms'
p32
asS'fitrange'
p33
(F30.1
F500.0
tp34
sS'DG_rms'
p35
(lp36
S'[2]'
p37
aS'[2]+[4]'
p38
asbsS'i_eta'
p39
I0
sS'particle'
p40
g1
sS'AcrossBinFuncs'
p41
(lp42
(iTFClasses
function
p43
(dp44
g15
(lp45
sg9
(lp46
sg17
(lp47
sg24
S'1'
p48
sg26
(lp49
sba(iTFClasses
function
p50
(dp51
g15
(lp52
F0.09494360233975818
aF0.0007797340503736732
asg9
(lp53
F-0.4852589512252967
aF0.9353189623885068
asg17
(lp54
sg24
S'[0]+[1]*x'
p55
sg26
(lp56
S'0'
p57
ag48
asba(iTFClasses
function
p58
(dp59
g15
(lp60
F0.5338977643448314
aF0.03621239864333101
aF0.005024719127410928
asg9
(lp61
F3.638778911841268
aF0.9794380726425542
aF0.027966712693676808
asg17
(lp62
sg24
S'sqrt([0]*[0] + x*[1]*[1] + x*x*[2]*[2])'
p63
sg26
(lp64
g57
ag57
ag57
asba(iTFClasses
function
p65
(dp66
g15
(lp67
F0.19292716101981228
aF0.0015219672233335521
asg9
(lp68
F7.650814598681498
aF0.7988218616325888
asg17
(lp69
sg24
g55
sg26
(lp70
g57
ag48
asba(iTFClasses
function
p71
(dp72
g15
(lp73
F0.17652092410102474
aF0.1226276302987686
aF0.0007624867583368444
asg9
(lp74
F7.005528673226764
aF6.416425160296345e-08
aF-0.11131707412630155
asg17
(lp75
sg24
g63
sg26
(lp76
g57
ag57
ag57
asbasba(iTFClasses
TF
p77
(dp78
g5
(iTFClasses
function
p79
(dp80
g8
F0.7
sg9
(lp81
F210.1028756532621
aF31.90096443367574
aF5.915347797472825
aF25.862429078161497
aF13.931626292495558
asg11
(lp82
g13
ag14
asg15
(lp83
F6.869334152590316
aF0.6028613466437243
aF0.5649572833233973
aF4.737429581901985
aF2.4360762117177632
asg17
(lp84
g19
ag20
ag21
ag22
asg23
I01
sg24
g25
sg26
(lp85
g28
ag29
ag30
ag31
ag32
asg33
g34
sg35
(lp86
g37
ag38
asbsg39
I1
sg40
g1
sg41
(lp87
(iTFClasses
function
p88
(dp89
g15
(lp90
sg9
(lp91
sg17
(lp92
sg24
g48
sg26
(lp93
sba(iTFClasses
function
p94
(dp95
g15
(lp96
F0.15211772941421725
aF0.0012435622891372269
asg9
(lp97
F-2.2444909446043733
aF0.8878042893837926
asg17
(lp98
sg24
g55
sg26
(lp99
g57
ag48
asba(iTFClasses
function
p100
(dp101
g15
(lp102
F4.273207493948106
aF0.014001372747976136
aF0.052301483500155344
asg9
(lp103
F9.120226901135593e-05
aF1.1581752400602394
aF0.0022281750299717354
asg17
(lp104
sg24
g63
sg26
(lp105
g57
ag57
ag57
asba(iTFClasses
function
p106
(dp107
g15
(lp108
F0.3198827247078834
aF0.0024624408996303045
asg9
(lp109
F6.8138735974246
aF0.7520024098343476
asg17
(lp110
sg24
g55
sg26
(lp111
g57
ag48
asba(iTFClasses
function
p112
(dp113
g15
(lp114
F0.3066614333379686
aF0.21459101965738964
aF0.0012328667953496657
asg9
(lp115
F6.0370632083227775
aF3.84770394296589e-06
aF0.09874082072000186
asg17
(lp116
sg24
g63
sg26
(lp117
g57
ag57
ag57
asbasbasS'l'
p118
(lp119
(iTFClasses
TF
p120
(dp121
g5
(iTFClasses
function
p122
(dp123
g8
F0.7
sg9
(lp124
F378.7602330804202
aF31.923033033474766
aF7.364637692902631
aF25.636802400806125
aF13.697119559840655
asg11
(lp125
g13
ag14
asg15
(lp126
F10.585711088987916
aF0.5620535050178681
aF0.5420383293622821
aF5.616132669063855
aF2.8415266025140227
asg17
(lp127
g19
ag20
ag21
ag22
asg23
I01
sg24
g25
sg26
(lp128
g28
ag29
ag30
ag31
ag32
asg33
g34
sg35
(lp129
g37
ag38
asbsg39
I0
sg40
g118
sg41
(lp130
(iTFClasses
function
p131
(dp132
g15
(lp133
sg9
(lp134
sg17
(lp135
sg24
g48
sg26
(lp136
sba(iTFClasses
function
p137
(dp138
g15
(lp139
F0.09552029905270196
aF0.0009103748333497766
asg9
(lp140
F1.4556037730051208
aF0.9554466369658462
asg17
(lp141
sg24
g55
sg26
(lp142
g57
ag48
asba(iTFClasses
function
p143
(dp144
g15
(lp145
F0.43633074585607445
aF0.03748870931194557
aF0.004769682147120813
asg9
(lp146
F3.7698450745177667
aF0.8890397195220745
aF0.030575987610039167
asg17
(lp147
sg24
g63
sg26
(lp148
g57
ag57
ag57
asba(iTFClasses
function
p149
(dp150
g15
(lp151
F0.18398203065291227
aF0.0016576461086309704
asg9
(lp152
F8.253055281187047
aF0.8674346400550503
asg17
(lp153
sg24
g55
sg26
(lp154
g57
ag48
asba(iTFClasses
function
p155
(dp156
g15
(lp157
F0.707166763858201
aF0.11654557245540638
aF0.004931151967431825
asg9
(lp158
F6.139562734926166
aF0.6910640997578774
aF0.0688844763972764
asg17
(lp159
sg24
g63
sg26
(lp160
g57
ag57
ag57
asbasba(iTFClasses
TF
p161
(dp162
g5
(iTFClasses
function
p163
(dp164
g8
F0.7
sg9
(lp165
F735.93197313531
aF1.1340040018126274e-08
aF20.43525323263995
aF3.3122835807475326e-05
aF2.6694103594238072e-05
asg11
(lp166
g13
ag14
asg15
(lp167
F35.33249801192002
aF4.912803235487539
aF0.5398976293866653
aF27.580068281929936
aF62.51831407822405
asg17
(lp168
g19
ag20
ag21
ag22
asg23
I01
sg24
g25
sg26
(lp169
g28
ag29
ag30
ag31
ag32
asg33
g34
sg35
(lp170
g37
ag38
asbsg39
I1
sg40
g118
sg41
(lp171
(iTFClasses
function
p172
(dp173
g15
(lp174
sg9
(lp175
sg17
(lp176
sg24
g48
sg26
(lp177
sba(iTFClasses
function
p178
(dp179
g15
(lp180
F0.15430512422278314
aF0.0014325653844219424
asg9
(lp181
F0.4894769222101277
aF0.9101448243619157
asg17
(lp182
sg24
g55
sg26
(lp183
g57
ag48
asba(iTFClasses
function
p184
(dp185
g15
(lp186
F0.8299698558303055
aF0.05045081926293841
aF0.014521273258939047
asg9
(lp187
F3.1277727956630312
aF1.0367522560348967
aF0.015753622475446417
asg17
(lp188
sg24
g63
sg26
(lp189
g57
ag57
ag57
asba(iTFClasses
function
p190
(dp191
g15
(lp192
F0.3068259441249125
aF0.0026754739578197903
asg9
(lp193
F7.8374583518509215
aF0.8132160206690651
asg17
(lp194
sg24
g55
sg26
(lp195
g57
ag48
asba(iTFClasses
function
p196
(dp197
g15
(lp198
F0.225186436062255
aF0.2936344842239783
aF0.0015519466980199086
asg9
(lp199
F6.793616567574316
aF-1.371282705815621e-05
aF0.07825677808147138
asg17
(lp200
sg24
g63
sg26
(lp201
g57
ag57
ag57
asbasbas.