(dp0
S'b'
p1
(lp2
(iTFClasses
TF
p3
(dp4
S'SingleBinFunc'
p5
(iTFClasses
function
p6
(dp7
S'DG_rel_weight'
p8
F0.7
sS'par_values'
p9
(lp10
F451.16815981476077
aF32.690427455584484
aF5.970491911713061
aF27.211759212773966
aF14.461353324768279
asS'DG_mean'
p11
(lp12
S'[1]'
p13
aS'[3]'
p14
asS'par_errors'
p15
(lp16
F8.611410254310842
aF0.3433308941259696
aF0.33619750623625766
aF3.0428857252530754
aF1.6918539689051437
asS'par_limits'
p17
(lp18
(I1
F0.0
F2000.0
tp19
a(I2
F0.0
F2000.0
tp20
a(I3
F0.0
F2000.0
tp21
a(I4
F0.0
F2000.0
tp22
asS'Is_DG'
p23
I01
sS'str'
p24
S'[0]*(0.7*exp(-0.5*((x-([1]))/([2]))**2)+(1-0.7)*exp(-0.5*((x-([3]))/([2]+[4]))**2))'
p25
sS'par_initials'
p26
(lp27
S'0'
p28
aS'1.1*mean'
p29
aS'1.0*rms'
p30
aS'0.7*mean'
p31
aS'0.5*rms'
p32
asS'fitrange'
p33
(F30.1
F500.0
tp34
sS'DG_rms'
p35
(lp36
S'[2]'
p37
aS'[2]+[4]'
p38
asbsS'i_eta'
p39
I0
sS'particle'
p40
g1
sS'AcrossBinFuncs'
p41
(lp42
(iTFClasses
function
p43
(dp44
g15
(lp45
sg9
(lp46
sg17
(lp47
sg24
S'1'
p48
sg26
(lp49
sba(iTFClasses
function
p50
(dp51
g15
(lp52
F0.08818093229292914
aF0.0007196941364771225
asg9
(lp53
F-0.4732988795031217
aF0.9350380087231612
asg17
(lp54
sg24
S'[0]+[1]*x'
p55
sg26
(lp56
S'0'
p57
ag48
asba(iTFClasses
function
p58
(dp59
g15
(lp60
F0.43198745857371956
aF0.03452774718035288
aF0.0044275583864095604
asg9
(lp61
F4.209270743001932
aF0.9551887962558585
aF0.029341234247660167
asg17
(lp62
sg24
S'sqrt([0]*[0] + x*[1]*[1] + x*x*[2]*[2])'
p63
sg26
(lp64
g57
ag57
ag57
asba(iTFClasses
function
p65
(dp66
g15
(lp67
F0.1786165227496826
aF0.0014023893090236291
asg9
(lp68
F7.7362746690490765
aF0.79904716784102
asg17
(lp69
sg24
g55
sg26
(lp70
g57
ag48
asba(iTFClasses
function
p71
(dp72
g15
(lp73
F0.16855205893429434
aF0.13806604928379
aF0.0006984823094570169
asg9
(lp74
F6.880214533203632
aF-6.452502100090971e-07
aF0.11288666025880029
asg17
(lp75
sg24
g63
sg26
(lp76
g57
ag57
ag57
asbasba(iTFClasses
TF
p77
(dp78
g5
(iTFClasses
function
p79
(dp80
g8
F0.7
sg9
(lp81
F259.50558953058436
aF31.938831685976552
aF5.937498105147321
aF21.978439688251306
aF16.31246621210558
asg11
(lp82
g13
ag14
asg15
(lp83
F9.113000027875184
aF0.5777885462199812
aF0.5585750489987551
aF6.010307552635485
aF3.0969195233841447
asg17
(lp84
g19
ag20
ag21
ag22
asg23
I01
sg24
g25
sg26
(lp85
g28
ag29
ag30
ag31
ag32
asg33
g34
sg35
(lp86
g37
ag38
asbsg39
I1
sg40
g1
sg41
(lp87
(iTFClasses
function
p88
(dp89
g15
(lp90
sg9
(lp91
sg17
(lp92
sg24
g48
sg26
(lp93
sba(iTFClasses
function
p94
(dp95
g15
(lp96
F0.1405236879109589
aF0.0011449661464269774
asg9
(lp97
F-2.033951184830171
aF0.8859850466628778
asg17
(lp98
sg24
g55
sg26
(lp99
g57
ag48
asba(iTFClasses
function
p100
(dp101
g15
(lp102
F1.2852936809009616
aF0.047981317397791316
aF0.011946021979057895
asg9
(lp103
F2.2601077972032515
aF1.1178754935193989
aF0.018104201555242224
asg17
(lp104
sg24
g63
sg26
(lp105
g57
ag57
ag57
asba(iTFClasses
function
p106
(dp107
g15
(lp108
F0.2926979806364492
aF0.0022467567514822657
asg9
(lp109
F6.350240093829566
aF0.7555477956166412
asg17
(lp110
sg24
g55
sg26
(lp111
g57
ag48
asba(iTFClasses
function
p112
(dp113
g15
(lp114
F0.2793383313488257
aF0.1981764778721216
aF0.0011265399726353954
asg9
(lp115
F6.131448471918184
aF-1.7084647683184115e-07
aF0.098998205572228
asg17
(lp116
sg24
g63
sg26
(lp117
g57
ag57
ag57
asbasbasS'l'
p118
(lp119
(iTFClasses
TF
p120
(dp121
g5
(iTFClasses
function
p122
(dp123
g8
F0.7
sg9
(lp124
F441.540502226799
aF32.76339718550692
aF6.4421236903765555
aF28.845475612308324
aF13.00935705167161
asg11
(lp125
g13
ag14
asg15
(lp126
F7.722841191620161
aF0.3607372850499253
aF0.3707807598474222
aF3.228928322117687
aF1.7681721667368588
asg17
(lp127
g19
ag20
ag21
ag22
asg23
I01
sg24
g25
sg26
(lp128
g28
ag29
ag30
ag31
ag32
asg33
g34
sg35
(lp129
g37
ag38
asbsg39
I0
sg40
g118
sg41
(lp130
(iTFClasses
function
p131
(dp132
g15
(lp133
sg9
(lp134
sg17
(lp135
sg24
g48
sg26
(lp136
sba(iTFClasses
function
p137
(dp138
g15
(lp139
F0.08745321975707245
aF0.0008356214659761192
asg9
(lp140
F1.3445250683651604
aF0.9559066536696267
asg17
(lp141
sg24
g55
sg26
(lp142
g57
ag48
asba(iTFClasses
function
p143
(dp144
g15
(lp145
F0.42335385280950333
aF0.03435408301825098
aF0.004416996520050057
asg9
(lp146
F3.589587857318727
aF0.899452417454782
aF0.030704101493787765
asg17
(lp147
sg24
g63
sg26
(lp148
g57
ag57
ag57
asba(iTFClasses
function
p149
(dp150
g15
(lp151
F0.16860055123663326
aF0.0015242889223918918
asg9
(lp152
F8.626432294985023
aF0.8645320670971898
asg17
(lp153
sg24
g55
sg26
(lp154
g57
ag48
asba(iTFClasses
function
p155
(dp156
g15
(lp157
F0.6726272517997107
aF0.10401489700356216
aF0.004475461014023389
asg9
(lp158
F5.898674448191959
aF0.7098864455071119
aF0.06973090408440609
asg17
(lp159
sg24
g63
sg26
(lp160
g57
ag57
ag57
asbasba(iTFClasses
TF
p161
(dp162
g5
(iTFClasses
function
p163
(dp164
g8
F0.7
sg9
(lp165
F266.31865359818613
aF32.24881185119233
aF5.974873374524958
aF28.114476799704914
aF11.380820117479429
asg11
(lp166
g13
ag14
asg15
(lp167
F6.732477562278352
aF0.4830203556958068
aF0.5247652535319558
aF4.205195968468189
aF2.054980387118766
asg17
(lp168
g19
ag20
ag21
ag22
asg23
I01
sg24
g25
sg26
(lp169
g28
ag29
ag30
ag31
ag32
asg33
g34
sg35
(lp170
g37
ag38
asbsg39
I1
sg40
g118
sg41
(lp171
(iTFClasses
function
p172
(dp173
g15
(lp174
sg9
(lp175
sg17
(lp176
sg24
g48
sg26
(lp177
sba(iTFClasses
function
p178
(dp179
g15
(lp180
F0.13942483015626847
aF0.0013014940293207477
asg9
(lp181
F0.5236834229830495
aF0.9097209874758373
asg17
(lp182
sg24
g55
sg26
(lp183
g57
ag48
asba(iTFClasses
function
p184
(dp185
g15
(lp186
F0.6355714469978325
aF0.04708276548081274
aF0.009529893245692532
asg9
(lp187
F3.6546465007197484
aF1.0065080361984384
aF0.021975250357176793
asg17
(lp188
sg24
g63
sg26
(lp189
g57
ag57
ag57
asba(iTFClasses
function
p190
(dp191
g15
(lp192
F0.28230945621145476
aF0.002456037403422894
asg9
(lp193
F7.782883180513579
aF0.8131753440787097
asg17
(lp194
sg24
g55
sg26
(lp195
g57
ag48
asba(iTFClasses
function
p196
(dp197
g15
(lp198
F0.2174564555132331
aF0.2416515516216452
aF0.0013918555229701555
asg9
(lp199
F6.469016913893283
aF9.869196462664195e-07
aF0.08194501594086501
asg17
(lp200
sg24
g63
sg26
(lp201
g57
ag57
ag57
asbasbas.