(dp0
S'b'
p1
(lp2
(iTFClasses
TF
p3
(dp4
S'SingleBinFunc'
p5
(iTFClasses
function
p6
(dp7
S'DG_rel_weight'
p8
F0.7
sS'par_values'
p9
(lp10
F831.712024833512
aF32.84762242435424
aF5.820894460331183
aF29.8292018564017
aF13.320582063410802
asS'DG_mean'
p11
(lp12
S'[1]'
p13
aS'[3]'
p14
asS'par_errors'
p15
(lp16
F10.69106989585774
aF0.23463579633348175
aF0.25048693341056527
aF1.907919608265919
aF1.0961841985348553
asS'par_limits'
p17
(lp18
(I1
F0.0
F2000.0
tp19
a(I2
F0.0
F2000.0
tp20
a(I3
F0.0
F2000.0
tp21
a(I4
F0.0
F2000.0
tp22
asS'Is_DG'
p23
I01
sS'str'
p24
S'[0]*(0.7*exp(-0.5*((x-([1]))/([2]))**2)+(1-0.7)*exp(-0.5*((x-([3]))/([2]+[4]))**2))'
p25
sS'par_initials'
p26
(lp27
S'0'
p28
aS'1.1*mean'
p29
aS'1.0*rms'
p30
aS'0.7*mean'
p31
aS'0.5*rms'
p32
asS'fitrange'
p33
(F30.1
F500.0
tp34
sS'DG_rms'
p35
(lp36
S'[2]'
p37
aS'[2]+[4]'
p38
asbsS'i_eta'
p39
I0
sS'particle'
p40
g1
sS'AcrossBinFuncs'
p41
(lp42
(iTFClasses
function
p43
(dp44
g15
(lp45
sg9
(lp46
sg17
(lp47
sg24
S'1'
p48
sg26
(lp49
sba(iTFClasses
function
p50
(dp51
g15
(lp52
F0.06423508457037544
aF0.0005259335184070685
asg9
(lp53
F-0.44365484829381047
aF0.9347554194786222
asg17
(lp54
sg24
S'[0]+[1]*x'
p55
sg26
(lp56
S'0'
p57
ag48
asba(iTFClasses
function
p58
(dp59
g15
(lp60
F0.3491810923004277
aF0.02446357030403839
aF0.0036310834298992982
asg9
(lp61
F3.7818701051120542
aF0.9841689880678767
aF0.026229852575254196
asg17
(lp62
sg24
S'sqrt([0]*[0] + x*[1]*[1] + x*x*[2]*[2])'
p63
sg26
(lp64
g57
ag57
ag57
asba(iTFClasses
function
p65
(dp66
g15
(lp67
F0.10935524353608408
aF0.0008823264927756281
asg9
(lp68
F7.478967988213284
aF0.8012424504084112
asg17
(lp69
sg24
g55
sg26
(lp70
g57
ag48
asba(iTFClasses
function
p71
(dp72
g15
(lp73
F0.12659188678881245
aF0.086450555374171
aF0.0005073307986884378
asg9
(lp74
F6.690206406655482
aF3.0418356797575987e-06
aF0.11431880906081192
asg17
(lp75
sg24
g63
sg26
(lp76
g57
ag57
ag57
asbasba(iTFClasses
TF
p77
(dp78
g5
(iTFClasses
function
p79
(dp80
g8
F0.7
sg9
(lp81
F463.4947054112312
aF31.697606152715995
aF6.058322480672507
aF24.9562061164611
aF14.836464211152478
asg11
(lp82
g13
ag14
asg15
(lp83
F11.105957076022204
aF0.45796268621195324
aF0.43267353362141936
aF3.8161793062018727
aF1.9803084021180481
asg17
(lp84
g19
ag20
ag21
ag22
asg23
I01
sg24
g25
sg26
(lp85
g28
ag29
ag30
ag31
ag32
asg33
g34
sg35
(lp86
g37
ag38
asbsg39
I1
sg40
g1
sg41
(lp87
(iTFClasses
function
p88
(dp89
g15
(lp90
sg9
(lp91
sg17
(lp92
sg24
g48
sg26
(lp93
sba(iTFClasses
function
p94
(dp95
g15
(lp96
F0.10206485979970864
aF0.0008357853049876497
asg9
(lp97
F-1.9742241220494763
aF0.8849776187784212
asg17
(lp98
sg24
g55
sg26
(lp99
g57
ag48
asba(iTFClasses
function
p100
(dp101
g15
(lp102
F2.599258741999123
aF0.0082351522075716
aF0.006581637721846021
asg9
(lp103
F-3.314286604487158e-09
aF1.1539942285724942
aF0.010457346153504823
asg17
(lp104
sg24
g63
sg26
(lp105
g57
ag57
ag57
asba(iTFClasses
function
p106
(dp107
g15
(lp108
F0.21455902020409476
aF0.0016461172761600418
asg9
(lp109
F6.461068656565413
aF0.7551427853096254
asg17
(lp110
sg24
g55
sg26
(lp111
g57
ag48
asba(iTFClasses
function
p112
(dp113
g15
(lp114
F0.20986162371587486
aF0.13007740637118012
aF0.000807862537095569
asg9
(lp115
F5.984975006656219
aF-8.256809510367752e-11
aF0.10143004280925294
asg17
(lp116
sg24
g63
sg26
(lp117
g57
ag57
ag57
asbasbasS'l'
p118
(lp119
(iTFClasses
TF
p120
(dp121
g5
(iTFClasses
function
p122
(dp123
g8
F0.7
sg9
(lp124
F825.6095493227554
aF32.52869036454609
aF6.5358834091189255
aF30.647990043740858
aF11.727984702162853
asg11
(lp125
g13
ag14
asg15
(lp126
F10.026626084272435
aF0.28726540675322454
aF0.30275427516979203
aF2.211384146500407
aF1.1940982986223263
asg17
(lp127
g19
ag20
ag21
ag22
asg23
I01
sg24
g25
sg26
(lp128
g28
ag29
ag30
ag31
ag32
asg33
g34
sg35
(lp129
g37
ag38
asbsg39
I0
sg40
g118
sg41
(lp130
(iTFClasses
function
p131
(dp132
g15
(lp133
sg9
(lp134
sg17
(lp135
sg24
g48
sg26
(lp136
sba(iTFClasses
function
p137
(dp138
g15
(lp139
F0.06405572398799392
aF0.0006098935560462031
asg9
(lp140
F1.486931075957751
aF0.954154807144103
asg17
(lp141
sg24
g55
sg26
(lp142
g57
ag48
asba(iTFClasses
function
p143
(dp144
g15
(lp145
F0.32521267985533814
aF0.024075786641678244
aF0.0038019212205427037
asg9
(lp146
F3.363533193564164
aF0.9238347377533839
aF0.025644016234774487
asg17
(lp147
sg24
g63
sg26
(lp148
g57
ag57
ag57
asba(iTFClasses
function
p149
(dp150
g15
(lp151
F0.12418442333710486
aF0.0011164164748155823
asg9
(lp152
F8.491627032100553
aF0.8663836067045184
asg17
(lp153
sg24
g55
sg26
(lp154
g57
ag48
asba(iTFClasses
function
p155
(dp156
g15
(lp157
F0.45023020551949855
aF0.10211120093475932
aF0.0029999782188242503
asg9
(lp158
F6.62954200629071
aF0.5452546583818235
aF0.07888338460753508
asg17
(lp159
sg24
g63
sg26
(lp160
g57
ag57
ag57
asbasba(iTFClasses
TF
p161
(dp162
g5
(iTFClasses
function
p163
(dp164
g8
F0.7
sg9
(lp165
F499.8068139035116
aF32.06561027277921
aF6.282874872288957
aF24.082838889529334
aF13.761256822118483
asg11
(lp166
g13
ag14
asg15
(lp167
F12.086073270595504
aF0.39637454448066123
aF0.38398480912116284
aF4.053213591610984
aF2.0027709210753137
asg17
(lp168
g19
ag20
ag21
ag22
asg23
I01
sg24
g25
sg26
(lp169
g28
ag29
ag30
ag31
ag32
asg33
g34
sg35
(lp170
g37
ag38
asbsg39
I1
sg40
g118
sg41
(lp171
(iTFClasses
function
p172
(dp173
g15
(lp174
sg9
(lp175
sg17
(lp176
sg24
g48
sg26
(lp177
sba(iTFClasses
function
p178
(dp179
g15
(lp180
F0.10014325589924894
aF0.0009428557024721815
asg9
(lp181
F0.5463431102600911
aF0.9092788633431782
asg17
(lp182
sg24
g55
sg26
(lp183
g57
ag48
asba(iTFClasses
function
p184
(dp185
g15
(lp186
F0.5377755290075554
aF0.033352864592410505
aF0.0072660642042130475
asg9
(lp187
F3.08553849624753
aF1.0248267917386815
aF0.020932601873241256
asg17
(lp188
sg24
g63
sg26
(lp189
g57
ag57
ag57
asba(iTFClasses
function
p190
(dp191
g15
(lp192
F0.20348274195469204
aF0.0017761565576634888
asg9
(lp193
F7.916146243869428
aF0.812315648463834
asg17
(lp194
sg24
g55
sg26
(lp195
g57
ag48
asba(iTFClasses
function
p196
(dp197
g15
(lp198
F0.1525777028277683
aF0.19655037401500056
aF0.0010191600163425342
asg9
(lp199
F6.852704305665167
aF-1.1877934362314579e-09
aF0.08259825152686563
asg17
(lp200
sg24
g63
sg26
(lp201
g57
ag57
ag57
asbasbas.