(dp0
S'b'
p1
(lp2
(iTFClasses
TF
p3
(dp4
S'SingleBinFunc'
p5
(iTFClasses
function
p6
(dp7
S'DG_rel_weight'
p8
F0.7
sS'par_values'
p9
(lp10
F471.10702807653024
aF32.586339073554235
aF6.022856962791701
aF27.695089372303137
aF14.235711553546636
asS'DG_mean'
p11
(lp12
S'[1]'
p13
aS'[3]'
p14
asS'par_errors'
p15
(lp16
F8.696455414696693
aF0.3485985438690946
aF0.34054863894839027
aF2.9334902561807255
aF1.6345730029792556
asS'par_limits'
p17
(lp18
(I1
F0.0
F2000.0
tp19
a(I2
F0.0
F2000.0
tp20
a(I3
F0.0
F2000.0
tp21
a(I4
F0.0
F2000.0
tp22
asS'Is_DG'
p23
I01
sS'str'
p24
S'[0]*(0.7*exp(-0.5*((x-([1]))/([2]))**2)+(1-0.7)*exp(-0.5*((x-([3]))/([2]+[4]))**2))'
p25
sS'par_initials'
p26
(lp27
S'0'
p28
aS'1.1*mean'
p29
aS'1.0*rms'
p30
aS'0.7*mean'
p31
aS'0.5*rms'
p32
asS'fitrange'
p33
(F30.1
F500.0
tp34
sS'DG_rms'
p35
(lp36
S'[2]'
p37
aS'[2]+[4]'
p38
asbsS'i_eta'
p39
I0
sS'particle'
p40
g1
sS'AcrossBinFuncs'
p41
(lp42
(iTFClasses
function
p43
(dp44
g15
(lp45
sg9
(lp46
sg17
(lp47
sg24
S'1'
p48
sg26
(lp49
sba(iTFClasses
function
p50
(dp51
g15
(lp52
F0.0860998861647905
aF0.0007031957541447511
asg9
(lp53
F-0.4634906363476741
aF0.9349673573808348
asg17
(lp54
sg24
S'[0]+[1]*x'
p55
sg26
(lp56
S'0'
p57
ag48
asba(iTFClasses
function
p58
(dp59
g15
(lp60
F0.4176245338255333
aF0.03408407164221615
aF0.00420951767379442
asg9
(lp61
F4.26165532231091
aF0.9479543184933372
aF0.030272991798266126
asg17
(lp62
sg24
S'sqrt([0]*[0] + x*[1]*[1] + x*x*[2]*[2])'
p63
sg26
(lp64
g57
ag57
ag57
asba(iTFClasses
function
p65
(dp66
g15
(lp67
F0.174452813589729
aF0.0013703239602067406
asg9
(lp68
F7.6669531025796225
aF0.7995174932848931
asg17
(lp69
sg24
g55
sg26
(lp70
g57
ag48
asba(iTFClasses
function
p71
(dp72
g15
(lp73
F0.16515849418538592
aF0.13252078819345872
aF0.0006819804062024567
asg9
(lp74
F6.859843821685454
aF-4.313555782621434e-10
aF0.11313230662633242
asg17
(lp75
sg24
g63
sg26
(lp76
g57
ag57
ag57
asbasba(iTFClasses
TF
p77
(dp78
g5
(iTFClasses
function
p79
(dp80
g8
F0.7
sg9
(lp81
F274.3263000665196
aF31.789558726015077
aF6.110624745794602
aF19.56879085708241
aF17.464955273138294
asg11
(lp82
g13
ag14
asg15
(lp83
F10.780824232167731
aF0.612773198220065
aF0.5768527373524179
aF7.027339870541605
aF3.5811701458210994
asg17
(lp84
g19
ag20
ag21
ag22
asg23
I01
sg24
g25
sg26
(lp85
g28
ag29
ag30
ag31
ag32
asg33
g34
sg35
(lp86
g37
ag38
asbsg39
I1
sg40
g1
sg41
(lp87
(iTFClasses
function
p88
(dp89
g15
(lp90
sg9
(lp91
sg17
(lp92
sg24
g48
sg26
(lp93
sba(iTFClasses
function
p94
(dp95
g15
(lp96
F0.13701259869728807
aF0.001117549117440201
asg9
(lp97
F-2.0327203889679275
aF0.8858964791257192
asg17
(lp98
sg24
g55
sg26
(lp99
g57
ag48
asba(iTFClasses
function
p100
(dp101
g15
(lp102
F1.318955625602559
aF0.046816577664686096
aF0.014121839793979305
asg9
(lp103
F2.162032879945163
aF1.1247134718752974
aF0.015023512687255844
asg17
(lp104
sg24
g63
sg26
(lp105
g57
ag57
ag57
asba(iTFClasses
function
p106
(dp107
g15
(lp108
F0.3148275547089
aF0.002410165617180127
asg9
(lp109
F6.260991134029306
aF0.7564023079298297
asg17
(lp110
sg24
g55
sg26
(lp111
g57
ag48
asba(iTFClasses
function
p112
(dp113
g15
(lp114
F0.2753840681114323
aF0.18826425998202231
aF0.0010956813104973254
asg9
(lp115
F6.094507460542829
aF-5.298864366340246e-07
aF0.0996034348851578
asg17
(lp116
sg24
g63
sg26
(lp117
g57
ag57
ag57
asbasbasS'l'
p118
(lp119
(iTFClasses
TF
p120
(dp121
g5
(iTFClasses
function
p122
(dp123
g8
F0.7
sg9
(lp124
F462.85854130352567
aF32.793094881381265
aF6.448078621850595
aF28.658378098545654
aF13.036790458934355
asg11
(lp125
g13
ag14
asg15
(lp126
F7.977512142721679
aF0.35080974257067865
aF0.36552360032199305
aF3.2477180815090883
aF1.7682852085522125
asg17
(lp127
g19
ag20
ag21
ag22
asg23
I01
sg24
g25
sg26
(lp128
g28
ag29
ag30
ag31
ag32
asg33
g34
sg35
(lp129
g37
ag38
asbsg39
I0
sg40
g118
sg41
(lp130
(iTFClasses
function
p131
(dp132
g15
(lp133
sg9
(lp134
sg17
(lp135
sg24
g48
sg26
(lp136
sba(iTFClasses
function
p137
(dp138
g15
(lp139
F0.08579131936919306
aF0.0008186852648015924
asg9
(lp140
F1.3494856669541333
aF0.9558472365463261
asg17
(lp141
sg24
g55
sg26
(lp142
g57
ag48
asba(iTFClasses
function
p143
(dp144
g15
(lp145
F0.40153521959936145
aF0.0339415369493949
aF0.004205105113875724
asg9
(lp146
F3.70790211895144
aF0.8907229390182679
aF0.031519181315332316
asg17
(lp147
sg24
g63
sg26
(lp148
g57
ag57
ag57
asba(iTFClasses
function
p149
(dp150
g15
(lp151
F0.16525986790384287
aF0.001493270039936001
asg9
(lp152
F8.666703641554786
aF0.8644852564466204
asg17
(lp153
sg24
g55
sg26
(lp154
g57
ag48
asba(iTFClasses
function
p155
(dp156
g15
(lp157
F0.6348334725759968
aF0.11098127603661384
aF0.004295950803819012
asg9
(lp158
F6.205568833052668
aF0.6601021160636803
aF0.07207727150417761
asg17
(lp159
sg24
g63
sg26
(lp160
g57
ag57
ag57
asbasba(iTFClasses
TF
p161
(dp162
g5
(iTFClasses
function
p163
(dp164
g8
F0.7
sg9
(lp165
F277.5707671702596
aF32.212688469718366
aF5.923451717895323
aF29.71102564742678
aF10.470432705384392
asg11
(lp166
g13
ag14
asg15
(lp167
F6.323934044070853
aF0.4766930742510791
aF0.5280336619201131
aF3.608930882481763
aF1.752867907652889
asg17
(lp168
g19
ag20
ag21
ag22
asg23
I01
sg24
g25
sg26
(lp169
g28
ag29
ag30
ag31
ag32
asg33
g34
sg35
(lp170
g37
ag38
asbsg39
I1
sg40
g118
sg41
(lp171
(iTFClasses
function
p172
(dp173
g15
(lp174
sg9
(lp175
sg17
(lp176
sg24
g48
sg26
(lp177
sba(iTFClasses
function
p178
(dp179
g15
(lp180
F0.13681855572657842
aF0.001282630400235327
asg9
(lp181
F0.4965754099112455
aF0.9100505657030926
asg17
(lp182
sg24
g55
sg26
(lp183
g57
ag48
asba(iTFClasses
function
p184
(dp185
g15
(lp186
F0.49659760977108897
aF0.011338216014339163
aF0.03947621286271317
asg9
(lp187
F2.1368155277432836
aF1.09135811056057
aF-6.173241820032679e-07
asg17
(lp188
sg24
g63
sg26
(lp189
g57
ag57
ag57
asba(iTFClasses
function
p190
(dp191
g15
(lp192
F0.2764091956257873
aF0.0024138913763276752
asg9
(lp193
F7.731176804982875
aF0.8140241669308885
asg17
(lp194
sg24
g55
sg26
(lp195
g57
ag48
asba(iTFClasses
function
p196
(dp197
g15
(lp198
F0.21103500471813896
aF0.25473208950870807
aF0.0013793684835423663
asg9
(lp199
F6.5530990549038455
aF-2.1525916762206485e-09
aF0.08153096071861629
asg17
(lp200
sg24
g63
sg26
(lp201
g57
ag57
ag57
asbasbas.